(lp0
(lp1
I166
aI0
aI1
aI0
acnumpy.core.multiarray
scalar
p2
(cnumpy
dtype
p3
(S'b1'
p4
I0
I1
tp5
Rp6
(I3
S'|'
p7
NNNI-1
I-1
I0
tp8
bS'\x00'
p9
tp10
Rp11
aa(lp12
I256
aI1
aI1
aI0
ag11
aa(lp13
I262
aI2
aI1
aI0
ag11
aa(lp14
I282
aI3
aI1
aI0
ag11
aa(lp15
I291
aI4
aI1
aI0
ag11
aa(lp16
I339
aI5
aI0
aI0
ag2
(g6
S'\x01'
p17
tp18
Rp19
aa(lp20
I345
aI6
aI1
aI0
ag11
aa(lp21
I378
aI7
aI0
aI0
ag19
aa(lp22
I389
aI8
aI0
aI0
ag19
aa(lp23
I427
aI9
aI0
aI0
ag19
aa(lp24
I433
aI10
aI1
aI0
ag11
aa(lp25
I445
aI11
aI0
aI0
ag19
aa(lp26
I453
aI12
aI1
aI0
ag11
aa(lp27
I480
aI13
aI0
aI0
ag19
aa(lp28
I490
aI14
aI0
aI0
ag19
aa(lp29
I505
aI15
aI1
aI0
ag11
aa(lp30
I516
aI16
aI0
aI0
ag19
aa(lp31
I537
aI17
aI0
aI0
ag19
aa(lp32
I574
aI18
aI0
aI0
ag19
aa(lp33
I611
aI19
aI0
aI0
ag19
aa(lp34
I618
aI20
aI1
aI0
ag11
aa(lp35
I630
aI21
aI0
aI0
ag19
aa(lp36
I642
aI22
aI0
aI0
ag19
aa(lp37
I656
aI23
aI1
aI0
ag11
aa(lp38
I667
aI24
aI0
aI0
ag19
aa(lp39
I708
aI25
aI0
aI0
ag19
aa(lp40
I715
aI26
aI1
aI0
ag11
aa(lp41
I726
aI27
aI0
aI0
ag19
aa(lp42
I738
aI28
aI1
aI0
ag11
aa(lp43
I749
aI29
aI1
aI0
ag11
aa(lp44
I767
aI30
aI0
aI0
ag19
aa(lp45
I779
aI31
aI0
aI0
ag19
aa(lp46
I799
aI32
aI0
aI0
ag19
aa(lp47
I810
aI33
aI0
aI0
ag19
aa(lp48
I821
aI34
aI0
aI0
ag19
aa(lp49
I831
aI35
aI0
aI0
ag19
aa(lp50
I841
aI36
aI0
aI0
ag19
aa(lp51
I858
aI37
aI1
aI0
ag11
aa(lp52
I868
aI38
aI1
aI0
ag11
aa(lp53
I878
aI39
aI0
aI0
ag19
aa(lp54
I892
aI40
aI0
aI0
ag19
aa(lp55
I907
aI41
aI0
aI0
ag19
aa(lp56
I968
aI42
aI1
aI0
ag11
aa(lp57
I1010
aI43
aI0
aI0
ag19
aa(lp58
I1030
aI44
aI0
aI0
ag19
aa(lp59
I1047
aI45
aI0
aI0
ag19
aa(lp60
I1117
aI46
aI0
aI0
ag19
aa(lp61
I1148
aI47
aI1
aI0
ag11
aa(lp62
I1163
aI48
aI0
aI0
ag19
aa(lp63
I1175
aI49
aI0
aI0
ag19
aa(lp64
I1186
aI50
aI0
aI0
ag19
aa(lp65
I1206
aI51
aI0
aI0
ag19
aa(lp66
I1225
aI52
aI0
aI0
ag19
aa(lp67
I1236
aI53
aI0
aI0
ag19
aa(lp68
I1263
aI54
aI0
aI0
ag19
aa(lp69
I1272
aI55
aI1
aI0
ag11
aa(lp70
I1305
aI56
aI0
aI0
ag19
aa(lp71
I1340
aI57
aI1
aI0
ag11
aa(lp72
I1351
aI58
aI0
aI0
ag19
aa(lp73
I1370
aI59
aI1
aI0
ag11
aa(lp74
I1388
aI60
aI0
aI0
ag19
aa(lp75
I1406
aI61
aI0
aI0
ag19
aa(lp76
I1418
aI62
aI0
aI0
ag19
aa(lp77
I1429
aI63
aI0
aI0
ag19
aa(lp78
I1440
aI64
aI0
aI0
ag19
aa(lp79
I1450
aI65
aI0
aI0
ag19
aa(lp80
I1461
aI66
aI0
aI0
ag19
aa(lp81
I1479
aI67
aI1
aI0
ag11
aa(lp82
I1493
aI68
aI0
aI0
ag19
aa(lp83
I1505
aI69
aI0
aI0
ag19
aa(lp84
I1517
aI70
aI0
aI0
ag19
aa(lp85
I1536
aI71
aI0
aI0
ag19
aa(lp86
I1554
aI72
aI0
aI0
ag19
aa(lp87
I1574
aI73
aI0
aI0
ag19
aa(lp88
I1590
aI74
aI1
aI0
ag11
aa(lp89
I1625
aI75
aI0
aI0
ag19
aa(lp90
I1642
aI76
aI0
aI0
ag19
aa(lp91
I1721
aI77
aI1
aI0
ag11
aa(lp92
I1733
aI78
aI1
aI0
ag11
aa(lp93
I1750
aI79
aI0
aI0
ag19
aa(lp94
I1763
aI80
aI0
aI0
ag19
aa(lp95
I1789
aI81
aI0
aI0
ag19
aa(lp96
I1800
aI82
aI0
aI0
ag19
aa(lp97
I1811
aI83
aI0
aI0
ag19
aa(lp98
I1823
aI84
aI0
aI0
ag19
aa(lp99
I1865
aI85
aI0
aI0
ag19
aa(lp100
I1879
aI86
aI0
aI0
ag19
aa(lp101
I1899
aI87
aI1
aI0
ag11
aa(lp102
I1909
aI88
aI0
aI0
ag19
aa(lp103
I1927
aI89
aI0
aI0
ag19
aa(lp104
I1938
aI90
aI1
aI0
ag11
aa(lp105
I1951
aI91
aI0
aI0
ag19
aa(lp106
I1971
aI92
aI0
aI0
ag19
aa(lp107
I1990
aI93
aI0
aI0
ag19
aa(lp108
I1999
aI94
aI1
aI0
ag11
aa(lp109
I2031
aI95
aI1
aI0
ag11
aa(lp110
I2046
aI96
aI0
aI0
ag19
aa(lp111
I2061
aI97
aI1
aI0
ag11
aa(lp112
I2072
aI98
aI0
aI0
ag19
aa(lp113
I2089
aI99
aI0
aI0
ag19
aa(lp114
I2159
aI100
aI0
aI0
ag19
aa(lp115
I2201
aI100
aI0
aI0
ag19
aa(lp116
I2240
aI101
aI1
aI0
ag11
aa(lp117
I2275
aI102
aI0
aI0
ag19
aa(lp118
I2289
aI103
aI0
aI0
ag19
aa(lp119
I2303
aI104
aI0
aI0
ag19
aa(lp120
I2339
aI105
aI1
aI0
ag11
aa(lp121
I2350
aI106
aI0
aI0
ag19
aa(lp122
I2364
aI107
aI0
aI0
ag19
aa(lp123
I2379
aI108
aI0
aI0
ag19
aa(lp124
I2400
aI109
aI1
aI0
ag11
aa(lp125
I2421
aI110
aI0
aI0
ag19
aa(lp126
I2433
aI111
aI0
aI0
ag19
aa(lp127
I2460
aI112
aI1
aI0
ag11
aa(lp128
I2506
aI113
aI1
aI0
ag11
aa(lp129
I2520
aI114
aI0
aI0
ag19
aa(lp130
I2533
aI115
aI0
aI0
ag19
aa(lp131
I2647
aI116
aI1
aI0
ag11
aa(lp132
I2696
aI117
aI0
aI0
ag19
aa(lp133
I2755
aI118
aI1
aI0
ag11
aa(lp134
I2774
aI119
aI1
aI0
ag11
aa(lp135
I2786
aI120
aI0
aI0
ag19
aa(lp136
I2799
aI121
aI1
aI0
ag11
aa(lp137
I2832
aI122
aI1
aI0
ag11
aa(lp138
I2844
aI123
aI0
aI0
ag19
aa(lp139
I2859
aI124
aI1
aI0
ag11
aa(lp140
I2866
aI125
aI1
aI0
ag11
aa(lp141
I2881
aI126
aI1
aI0
ag11
aa(lp142
I2895
aI127
aI0
aI0
ag19
aa(lp143
I3035
aI128
aI1
aI0
ag11
aa(lp144
I3047
aI129
aI0
aI0
ag19
aa(lp145
I3060
aI130
aI0
aI0
ag19
aa(lp146
I3096
aI131
aI0
aI0
ag19
aa(lp147
I3111
aI132
aI0
aI0
ag19
aa(lp148
I3132
aI133
aI1
aI0
ag11
aa(lp149
I3169
aI134
aI1
aI0
ag11
aa(lp150
I3182
aI134
aI0
aI0
ag19
aa(lp151
I3206
aI135
aI1
aI0
ag11
aa(lp152
I3213
aI136
aI1
aI0
ag11
aa(lp153
I3260
aI137
aI1
aI0
ag11
aa(lp154
I3273
aI138
aI0
aI0
ag19
aa(lp155
I3473
aI139
aI0
aI0
ag11
aa(lp156
I3503
aI140
aI1
aI0
ag11
aa(lp157
I3703
aI141
aI0
aI0
ag11
aa(lp158
I3748
aI142
aI1
aI0
ag11
aa(lp159
I3767
aI143
aI1
aI0
ag11
aa(lp160
I3783
aI144
aI1
aI0
ag11
aa(lp161
I3792
aI145
aI1
aI0
ag11
aa(lp162
I3802
aI146
aI1
aI0
ag11
aa(lp163
I4002
aI147
aI0
aI0
ag11
aa(lp164
I4143
aI148
aI0
aI0
ag19
aa(lp165
I4155
aI149
aI1
aI0
ag11
aa(lp166
I4189
aI150
aI1
aI0
ag11
aa(lp167
I4195
aI151
aI1
aI0
ag11
aa(lp168
I4324
aI152
aI0
aI0
ag19
aa(lp169
I4339
aI153
aI0
aI0
ag19
aa(lp170
I4409
aI154
aI1
aI0
ag11
aa(lp171
I4440
aI155
aI0
aI0
ag19
aa(lp172
I4464
aI156
aI1
aI0
ag11
aa(lp173
I4472
aI157
aI1
aI0
ag11
aa(lp174
I4479
aI158
aI1
aI0
ag11
aa(lp175
I4571
aI159
aI1
aI0
ag11
aa(lp176
I4592
aI160
aI0
aI0
ag19
aa(lp177
I4606
aI161
aI1
aI0
ag11
aa(lp178
I4688
aI162
aI0
aI0
ag19
aa(lp179
I4709
aI163
aI1
aI0
ag11
aa(lp180
I4731
aI164
aI0
aI0
ag19
aa(lp181
I4758
aI165
aI1
aI0
ag11
aa(lp182
I4788
aI166
aI0
aI0
ag19
aa(lp183
I4806
aI167
aI0
aI0
ag19
aa(lp184
I4832
aI168
aI1
aI0
ag11
aa(lp185
I4850
aI169
aI0
aI0
ag19
aa(lp186
I4861
aI170
aI1
aI0
ag11
aa(lp187
I4872
aI171
aI0
aI0
ag19
aa(lp188
I4892
aI172
aI0
aI0
ag19
aa(lp189
I4981
aI173
aI1
aI0
ag11
aa(lp190
I4996
aI174
aI0
aI0
ag19
aa(lp191
I5003
aI175
aI1
aI0
ag11
aa(lp192
I5030
aI176
aI1
aI0
ag11
aa(lp193
I5037
aI177
aI1
aI0
ag11
aa(lp194
I5063
aI178
aI0
aI0
ag19
aa(lp195
I5080
aI179
aI1
aI0
ag11
aa(lp196
I5153
aI180
aI0
aI0
ag19
aa(lp197
I5287
aI181
aI0
aI0
ag19
aa(lp198
I5308
aI182
aI1
aI0
ag11
aa(lp199
I5317
aI183
aI1
aI0
ag11
aa(lp200
I5336
aI184
aI1
aI0
ag11
aa(lp201
I5352
aI185
aI1
aI0
ag11
aa(lp202
I5361
aI186
aI1
aI0
ag11
aa(lp203
I5417
aI187
aI1
aI0
ag11
aa(lp204
I5436
aI188
aI0
aI0
ag19
aa(lp205
I5448
aI189
aI1
aI0
ag11
aa(lp206
I5454
aI190
aI1
aI0
ag11
aa(lp207
I5463
aI191
aI1
aI0
ag11
aa(lp208
I5469
aI192
aI1
aI0
ag11
aa(lp209
I5480
aI193
aI0
aI0
ag19
aa(lp210
I5495
aI194
aI1
aI0
ag11
aa(lp211
I5527
aI195
aI0
aI0
ag19
aa(lp212
I5675
aI196
aI0
aI0
ag19
aa(lp213
I5691
aI197
aI0
aI0
ag19
aa(lp214
I5700
aI198
aI1
aI0
ag11
aa(lp215
I5707
aI199
aI1
aI0
ag11
aa(lp216
I5714
aI200
aI1
aI0
ag11
aa(lp217
I5721
aI201
aI1
aI0
ag11
aa(lp218
I5731
aI202
aI1
aI0
ag11
aa(lp219
I5758
aI203
aI0
aI0
ag19
aa(lp220
I5767
aI204
aI1
aI0
ag11
aa(lp221
I5839
aI205
aI0
aI0
ag19
aa(lp222
I5855
aI206
aI1
aI0
ag11
aa(lp223
I5860
aI207
aI1
aI0
ag11
aa(lp224
I5882
aI208
aI0
aI0
ag19
aa(lp225
I5896
aI209
aI1
aI0
ag11
aa(lp226
I5902
aI210
aI1
aI0
ag11
aa(lp227
I5949
aI211
aI1
aI0
ag11
aa(lp228
I5962
aI212
aI1
aI0
ag11
aa(lp229
I5991
aI213
aI0
aI0
ag19
aa(lp230
I6004
aI214
aI0
aI0
ag19
aa.