(lp0
(lp1
I150
aI0
aI1
aI0
acnumpy.core.multiarray
scalar
p2
(cnumpy
dtype
p3
(S'b1'
p4
I0
I1
tp5
Rp6
(I3
S'|'
p7
NNNI-1
I-1
I0
tp8
bS'\x00'
p9
tp10
Rp11
aa(lp12
I242
aI1
aI1
aI0
ag11
aa(lp13
I264
aI2
aI1
aI0
ag11
aa(lp14
I464
aI3
aI0
aI0
ag11
aa(lp15
I532
aI4
aI1
aI0
ag11
aa(lp16
I597
aI5
aI1
aI0
ag11
aa(lp17
I615
aI6
aI1
aI0
ag11
aa(lp18
I654
aI7
aI0
aI0
ag2
(g6
S'\x01'
p19
tp20
Rp21
aa(lp22
I673
aI8
aI1
aI0
ag11
aa(lp23
I683
aI9
aI1
aI0
ag11
aa(lp24
I843
aI10
aI0
aI0
ag21
aa(lp25
I916
aI11
aI1
aI0
ag11
aa(lp26
I934
aI12
aI0
aI0
ag21
aa(lp27
I966
aI13
aI1
aI0
ag11
aa(lp28
I980
aI14
aI1
aI0
ag11
aa(lp29
I996
aI15
aI1
aI0
ag11
aa(lp30
I1009
aI16
aI1
aI0
ag11
aa(lp31
I1044
aI17
aI1
aI0
ag11
aa(lp32
I1054
aI18
aI1
aI0
ag11
aa(lp33
I1121
aI19
aI0
aI0
ag21
aa(lp34
I1140
aI20
aI1
aI0
ag11
aa(lp35
I1177
aI21
aI1
aI0
ag11
aa(lp36
I1209
aI22
aI1
aI0
ag11
aa(lp37
I1250
aI23
aI0
aI0
ag21
aa(lp38
I1264
aI24
aI1
aI0
ag11
aa(lp39
I1288
aI25
aI1
aI0
ag11
aa(lp40
I1323
aI26
aI0
aI0
ag21
aa(lp41
I1345
aI27
aI1
aI0
ag11
aa(lp42
I1355
aI28
aI1
aI0
ag11
aa(lp43
I1409
aI29
aI1
aI0
ag11
aa(lp44
I1425
aI30
aI1
aI0
ag11
aa(lp45
I1433
aI31
aI1
aI0
ag11
aa(lp46
I1449
aI32
aI1
aI0
ag11
aa(lp47
I1458
aI33
aI1
aI0
ag11
aa(lp48
I1482
aI34
aI1
aI0
ag11
aa(lp49
I1521
aI35
aI0
aI0
ag21
aa(lp50
I1531
aI36
aI1
aI0
ag11
aa(lp51
I1584
aI37
aI1
aI0
ag11
aa(lp52
I1664
aI38
aI1
aI0
ag11
aa(lp53
I1723
aI39
aI1
aI0
ag11
aa(lp54
I1791
aI40
aI1
aI0
ag11
aa(lp55
I1806
aI41
aI1
aI0
ag11
aa(lp56
I1834
aI42
aI0
aI0
ag21
aa(lp57
I1863
aI43
aI1
aI0
ag11
aa(lp58
I1879
aI44
aI1
aI0
ag11
aa(lp59
I1905
aI45
aI1
aI0
ag11
aa(lp60
I1923
aI46
aI1
aI0
ag11
aa(lp61
I1947
aI47
aI1
aI0
ag11
aa(lp62
I1962
aI48
aI1
aI0
ag11
aa(lp63
I1987
aI49
aI0
aI0
ag21
aa(lp64
I2060
aI50
aI0
aI0
ag21
aa(lp65
I2122
aI51
aI1
aI0
ag11
aa(lp66
I2149
aI52
aI1
aI0
ag11
aa(lp67
I2166
aI53
aI1
aI0
ag11
aa(lp68
I2171
aI54
aI1
aI0
ag11
aa(lp69
I2264
aI55
aI1
aI0
ag11
aa(lp70
I2277
aI56
aI1
aI0
ag11
aa(lp71
I2318
aI57
aI1
aI0
ag11
aa(lp72
I2330
aI58
aI1
aI0
ag11
aa(lp73
I2342
aI59
aI1
aI0
ag11
aa(lp74
I2406
aI60
aI1
aI0
ag11
aa(lp75
I2423
aI61
aI1
aI0
ag11
aa(lp76
I2454
aI62
aI0
aI0
ag21
aa(lp77
I2489
aI63
aI1
aI0
ag11
aa(lp78
I2525
aI64
aI1
aI0
ag11
aa(lp79
I2546
aI65
aI1
aI0
ag11
aa(lp80
I2555
aI66
aI1
aI0
ag11
aa(lp81
I2566
aI67
aI1
aI0
ag11
aa(lp82
I2571
aI68
aI1
aI0
ag11
aa(lp83
I2597
aI69
aI1
aI0
ag11
aa(lp84
I2636
aI70
aI1
aI0
ag11
aa(lp85
I2836
aI71
aI0
aI0
ag11
aa(lp86
I2867
aI72
aI1
aI0
ag11
aa(lp87
I2874
aI73
aI1
aI0
ag11
aa(lp88
I2899
aI74
aI0
aI0
ag21
aa(lp89
I2923
aI75
aI1
aI0
ag11
aa(lp90
I2948
aI76
aI1
aI0
ag11
aa(lp91
I2963
aI77
aI1
aI0
ag11
aa(lp92
I2972
aI78
aI1
aI0
ag11
aa(lp93
I3001
aI79
aI1
aI0
ag11
aa(lp94
I3016
aI80
aI1
aI0
ag11
aa(lp95
I3035
aI81
aI1
aI0
ag11
aa(lp96
I3048
aI82
aI1
aI0
ag11
aa(lp97
I3103
aI83
aI1
aI0
ag11
aa(lp98
I3136
aI84
aI1
aI0
ag11
aa(lp99
I3145
aI85
aI1
aI0
ag11
aa(lp100
I3151
aI86
aI1
aI0
ag11
aa(lp101
I3168
aI87
aI1
aI0
ag11
aa(lp102
I3191
aI88
aI1
aI0
ag11
aa(lp103
I3206
aI89
aI1
aI0
ag11
aa(lp104
I3258
aI90
aI0
aI0
ag21
aa(lp105
I3272
aI91
aI1
aI0
ag11
aa(lp106
I3346
aI92
aI1
aI0
ag11
aa(lp107
I3362
aI93
aI1
aI0
ag11
aa(lp108
I3392
aI94
aI1
aI0
ag11
aa(lp109
I3469
aI95
aI1
aI0
ag11
aa(lp110
I3489
aI96
aI1
aI0
ag11
aa(lp111
I3581
aI97
aI1
aI0
ag11
aa(lp112
I3602
aI98
aI0
aI0
ag21
aa(lp113
I3626
aI99
aI0
aI0
ag21
aa(lp114
I3640
aI100
aI1
aI0
ag11
aa.