(lp0
(lp1
I161
aI0
aI1
aI0
acnumpy.core.multiarray
scalar
p2
(cnumpy
dtype
p3
(S'b1'
p4
I0
I1
tp5
Rp6
(I3
S'|'
p7
NNNI-1
I-1
I0
tp8
bS'\x00'
p9
tp10
Rp11
aa(lp12
I223
aI1
aI0
aI0
ag2
(g6
S'\x01'
p13
tp14
Rp15
aa(lp16
I235
aI2
aI0
aI0
ag15
aa(lp17
I246
aI3
aI1
aI0
ag11
aa(lp18
I446
aI4
aI0
aI0
ag11
aa(lp19
I460
aI5
aI1
aI0
ag11
aa(lp20
I624
aI6
aI1
aI0
ag11
aa(lp21
I682
aI7
aI1
aI0
ag11
aa(lp22
I713
aI8
aI1
aI0
ag11
aa(lp23
I732
aI9
aI1
aI0
ag11
aa(lp24
I755
aI10
aI1
aI0
ag11
aa(lp25
I763
aI11
aI1
aI0
ag11
aa(lp26
I845
aI12
aI1
aI0
ag11
aa(lp27
I875
aI13
aI1
aI0
ag11
aa(lp28
I896
aI14
aI0
aI0
ag15
aa(lp29
I910
aI15
aI1
aI0
ag11
aa(lp30
I923
aI16
aI1
aI0
ag11
aa(lp31
I943
aI17
aI1
aI0
ag11
aa(lp32
I957
aI18
aI1
aI0
ag11
aa(lp33
I965
aI19
aI1
aI0
ag11
aa(lp34
I978
aI20
aI1
aI0
ag11
aa(lp35
I1006
aI21
aI0
aI0
ag15
aa(lp36
I1014
aI22
aI1
aI0
ag11
aa(lp37
I1025
aI23
aI1
aI0
ag11
aa(lp38
I1058
aI24
aI0
aI0
ag15
aa(lp39
I1066
aI25
aI1
aI0
ag11
aa(lp40
I1076
aI26
aI1
aI0
ag11
aa(lp41
I1102
aI27
aI1
aI0
ag11
aa(lp42
I1133
aI28
aI1
aI0
ag11
aa(lp43
I1161
aI29
aI0
aI0
ag15
aa(lp44
I1206
aI30
aI1
aI0
ag11
aa(lp45
I1264
aI31
aI1
aI0
ag11
aa(lp46
I1294
aI32
aI1
aI0
ag11
aa(lp47
I1305
aI33
aI1
aI0
ag11
aa(lp48
I1330
aI34
aI1
aI0
ag11
aa(lp49
I1345
aI35
aI1
aI0
ag11
aa(lp50
I1368
aI36
aI1
aI0
ag11
aa(lp51
I1382
aI37
aI1
aI0
ag11
aa(lp52
I1397
aI38
aI1
aI0
ag11
aa(lp53
I1406
aI39
aI1
aI0
ag11
aa(lp54
I1423
aI40
aI1
aI0
ag11
aa(lp55
I1470
aI41
aI1
aI0
ag11
aa(lp56
I1494
aI42
aI1
aI0
ag11
aa(lp57
I1504
aI43
aI1
aI0
ag11
aa(lp58
I1523
aI44
aI0
aI0
ag15
aa(lp59
I1545
aI45
aI1
aI0
ag11
aa(lp60
I1587
aI46
aI1
aI0
ag11
aa(lp61
I1625
aI47
aI1
aI0
ag11
aa(lp62
I1637
aI48
aI1
aI0
ag11
aa(lp63
I1645
aI49
aI1
aI0
ag11
aa(lp64
I1668
aI50
aI1
aI0
ag11
aa(lp65
I1688
aI51
aI0
aI0
ag15
aa(lp66
I1694
aI52
aI1
aI0
ag11
aa(lp67
I1718
aI53
aI1
aI0
ag11
aa(lp68
I1784
aI54
aI0
aI0
ag15
aa(lp69
I1792
aI55
aI1
aI0
ag11
aa(lp70
I1824
aI56
aI1
aI0
ag11
aa(lp71
I1836
aI57
aI1
aI0
ag11
aa(lp72
I1852
aI58
aI0
aI0
ag15
aa(lp73
I1872
aI59
aI1
aI0
ag11
aa(lp74
I1890
aI60
aI1
aI0
ag11
aa(lp75
I1911
aI61
aI1
aI0
ag11
aa(lp76
I1933
aI62
aI1
aI0
ag11
aa(lp77
I1953
aI63
aI1
aI0
ag11
aa(lp78
I1974
aI64
aI1
aI0
ag11
aa(lp79
I1984
aI65
aI1
aI0
ag11
aa(lp80
I1990
aI66
aI1
aI0
ag11
aa(lp81
I2052
aI67
aI0
aI0
ag15
aa(lp82
I2070
aI68
aI1
aI0
ag11
aa(lp83
I2109
aI69
aI1
aI0
ag11
aa(lp84
I2122
aI70
aI1
aI0
ag11
aa(lp85
I2131
aI71
aI1
aI0
ag11
aa(lp86
I2162
aI72
aI1
aI0
ag11
aa(lp87
I2172
aI73
aI1
aI0
ag11
aa(lp88
I2219
aI74
aI1
aI0
ag11
aa(lp89
I2235
aI75
aI1
aI0
ag11
aa(lp90
I2261
aI76
aI1
aI0
ag11
aa(lp91
I2267
aI77
aI1
aI0
ag11
aa(lp92
I2276
aI78
aI1
aI0
ag11
aa(lp93
I2291
aI79
aI1
aI0
ag11
aa(lp94
I2364
aI80
aI1
aI0
ag11
aa(lp95
I2394
aI81
aI0
aI0
ag15
aa(lp96
I2405
aI82
aI1
aI0
ag11
aa(lp97
I2419
aI83
aI1
aI0
ag11
aa(lp98
I2433
aI84
aI1
aI0
ag11
aa(lp99
I2444
aI85
aI1
aI0
ag11
aa(lp100
I2580
aI86
aI1
aI0
ag11
aa(lp101
I2592
aI87
aI1
aI0
ag11
aa(lp102
I2695
aI88
aI1
aI0
ag11
aa(lp103
I2731
aI89
aI1
aI0
ag11
aa(lp104
I2755
aI90
aI0
aI0
ag15
aa(lp105
I2777
aI91
aI1
aI0
ag11
aa(lp106
I2816
aI92
aI1
aI0
ag11
aa(lp107
I2823
aI93
aI1
aI0
ag11
aa(lp108
I2828
aI94
aI1
aI0
ag11
aa(lp109
I2937
aI95
aI1
aI0
ag11
aa(lp110
I2946
aI96
aI1
aI0
ag11
aa(lp111
I2956
aI97
aI1
aI0
ag11
aa(lp112
I2975
aI98
aI1
aI0
ag11
aa(lp113
I2991
aI99
aI1
aI0
ag11
aa(lp114
I3017
aI100
aI1
aI0
ag11
aa(lp115
I3038
aI100
aI1
aI0
ag11
aa.