(lp0
(lp1
I175
aI0
aI1
aI0
acnumpy.core.multiarray
scalar
p2
(cnumpy
dtype
p3
(S'b1'
p4
I0
I1
tp5
Rp6
(I3
S'|'
p7
NNNI-1
I-1
I0
tp8
bS'\x00'
p9
tp10
Rp11
aa(lp12
I234
aI1
aI0
aI0
ag2
(g6
S'\x01'
p13
tp14
Rp15
aa(lp16
I241
aI2
aI1
aI0
ag11
aa(lp17
I249
aI3
aI1
aI0
ag11
aa(lp18
I425
aI4
aI0
aI0
ag15
aa(lp19
I483
aI5
aI1
aI0
ag11
aa(lp20
I501
aI6
aI0
aI0
ag15
aa(lp21
I600
aI7
aI1
aI0
ag11
aa(lp22
I624
aI8
aI1
aI0
ag11
aa(lp23
I707
aI9
aI1
aI0
ag11
aa(lp24
I775
aI10
aI1
aI0
ag11
aa(lp25
I798
aI11
aI0
aI0
ag15
aa(lp26
I803
aI12
aI1
aI0
ag11
aa(lp27
I942
aI13
aI1
aI0
ag11
aa(lp28
I1028
aI14
aI1
aI0
ag11
aa(lp29
I1051
aI15
aI0
aI0
ag15
aa(lp30
I1110
aI16
aI1
aI0
ag11
aa(lp31
I1118
aI17
aI1
aI0
ag11
aa(lp32
I1163
aI18
aI1
aI0
ag11
aa(lp33
I1224
aI19
aI0
aI0
ag15
aa(lp34
I1244
aI20
aI1
aI0
ag11
aa(lp35
I1255
aI21
aI1
aI0
ag11
aa(lp36
I1299
aI22
aI1
aI0
ag11
aa(lp37
I1437
aI23
aI0
aI0
ag15
aa(lp38
I1505
aI24
aI1
aI0
ag11
aa(lp39
I1550
aI25
aI1
aI0
ag11
aa(lp40
I1557
aI26
aI1
aI0
ag11
aa(lp41
I1612
aI27
aI0
aI0
ag15
aa(lp42
I1638
aI28
aI1
aI0
ag11
aa(lp43
I1658
aI29
aI1
aI0
ag11
aa(lp44
I1756
aI30
aI0
aI0
ag15
aa(lp45
I1760
aI31
aI1
aI0
ag11
aa(lp46
I1825
aI32
aI1
aI0
ag11
aa(lp47
I1835
aI33
aI1
aI0
ag11
aa(lp48
I1862
aI34
aI1
aI0
ag11
aa(lp49
I1880
aI35
aI0
aI0
ag15
aa(lp50
I1888
aI36
aI1
aI0
ag11
aa(lp51
I2088
aI37
aI0
aI0
ag11
aa(lp52
I2126
aI38
aI1
aI0
ag11
aa(lp53
I2143
aI39
aI0
aI0
ag15
aa(lp54
I2202
aI40
aI0
aI0
ag15
aa(lp55
I2228
aI41
aI1
aI0
ag11
aa(lp56
I2252
aI42
aI1
aI0
ag11
aa(lp57
I2270
aI43
aI1
aI0
ag11
aa(lp58
I2305
aI44
aI0
aI0
ag15
aa(lp59
I2321
aI45
aI1
aI0
ag11
aa(lp60
I2352
aI46
aI1
aI0
ag11
aa(lp61
I2362
aI47
aI1
aI0
ag11
aa(lp62
I2376
aI48
aI1
aI0
ag11
aa(lp63
I2400
aI49
aI1
aI0
ag11
aa(lp64
I2426
aI50
aI1
aI0
ag11
aa(lp65
I2626
aI51
aI0
aI0
ag11
aa(lp66
I2641
aI52
aI1
aI0
ag11
aa(lp67
I2693
aI53
aI1
aI0
ag11
aa(lp68
I2702
aI54
aI1
aI0
ag11
aa(lp69
I2776
aI55
aI1
aI0
ag11
aa(lp70
I2826
aI56
aI1
aI0
ag11
aa(lp71
I2837
aI57
aI1
aI0
ag11
aa(lp72
I2857
aI58
aI0
aI0
ag15
aa(lp73
I3028
aI59
aI1
aI0
ag11
aa(lp74
I3054
aI60
aI1
aI0
ag11
aa(lp75
I3084
aI61
aI1
aI0
ag11
aa(lp76
I3162
aI62
aI0
aI0
ag15
aa(lp77
I3223
aI63
aI0
aI0
ag15
aa(lp78
I3247
aI64
aI1
aI0
ag11
aa(lp79
I3255
aI65
aI1
aI0
ag11
aa(lp80
I3266
aI66
aI1
aI0
ag11
aa(lp81
I3285
aI67
aI1
aI0
ag11
aa(lp82
I3302
aI68
aI1
aI0
ag11
aa(lp83
I3318
aI69
aI1
aI0
ag11
aa(lp84
I3352
aI70
aI0
aI0
ag15
aa(lp85
I3372
aI71
aI1
aI0
ag11
aa(lp86
I3414
aI72
aI1
aI0
ag11
aa(lp87
I3500
aI73
aI0
aI0
ag15
aa(lp88
I3519
aI74
aI1
aI0
ag11
aa(lp89
I3534
aI75
aI1
aI0
ag11
aa(lp90
I3627
aI76
aI1
aI0
ag11
aa(lp91
I3632
aI77
aI1
aI0
ag11
aa(lp92
I3660
aI78
aI1
aI0
ag11
aa(lp93
I3666
aI79
aI1
aI0
ag11
aa(lp94
I3723
aI80
aI0
aI0
ag15
aa(lp95
I3745
aI81
aI1
aI0
ag11
aa(lp96
I3775
aI82
aI1
aI0
ag11
aa(lp97
I3795
aI83
aI1
aI0
ag11
aa(lp98
I3803
aI84
aI1
aI0
ag11
aa(lp99
I3812
aI85
aI1
aI0
ag11
aa(lp100
I3837
aI86
aI0
aI0
ag15
aa(lp101
I3873
aI87
aI0
aI0
ag15
aa(lp102
I3887
aI88
aI1
aI0
ag11
aa(lp103
I3925
aI89
aI1
aI0
ag11
aa(lp104
I3976
aI90
aI1
aI0
ag11
aa(lp105
I3997
aI91
aI1
aI0
ag11
aa(lp106
I4008
aI92
aI1
aI0
ag11
aa(lp107
I4026
aI93
aI0
aI0
ag15
aa(lp108
I4062
aI94
aI0
aI0
ag15
aa(lp109
I4074
aI95
aI1
aI0
ag11
aa(lp110
I4091
aI96
aI1
aI0
ag11
aa(lp111
I4106
aI97
aI1
aI0
ag11
aa(lp112
I4136
aI98
aI0
aI0
ag15
aa(lp113
I4200
aI99
aI1
aI0
ag11
aa(lp114
I4252
aI100
aI1
aI0
ag11
aa(lp115
I4275
aI101
aI1
aI0
ag11
aa(lp116
I4322
aI102
aI1
aI0
ag11
aa(lp117
I4398
aI103
aI1
aI0
ag11
aa(lp118
I4427
aI104
aI0
aI0
ag15
aa(lp119
I4470
aI105
aI0
aI0
ag15
aa(lp120
I4479
aI106
aI1
aI0
ag11
aa(lp121
I4503
aI107
aI1
aI0
ag11
aa(lp122
I4558
aI108
aI1
aI0
ag11
aa(lp123
I4566
aI109
aI1
aI0
ag11
aa(lp124
I4643
aI110
aI1
aI0
ag11
aa(lp125
I4649
aI111
aI1
aI0
ag11
aa(lp126
I4815
aI112
aI1
aI0
ag11
aa(lp127
I4853
aI113
aI1
aI0
ag11
aa(lp128
I4880
aI114
aI1
aI0
ag11
aa(lp129
I4987
aI115
aI0
aI0
ag15
aa(lp130
I5010
aI116
aI1
aI0
ag11
aa(lp131
I5046
aI117
aI1
aI0
ag11
aa(lp132
I5071
aI118
aI1
aI0
ag11
aa(lp133
I5198
aI119
aI0
aI0
ag15
aa(lp134
I5238
aI120
aI1
aI0
ag11
aa(lp135
I5258
aI121
aI1
aI0
ag11
aa(lp136
I5293
aI122
aI1
aI0
ag11
aa(lp137
I5304
aI123
aI1
aI0
ag11
aa(lp138
I5324
aI124
aI1
aI0
ag11
aa(lp139
I5365
aI125
aI1
aI0
ag11
aa(lp140
I5378
aI126
aI1
aI0
ag11
aa(lp141
I5388
aI127
aI1
aI0
ag11
aa(lp142
I5486
aI128
aI1
aI0
ag11
aa(lp143
I5506
aI129
aI1
aI0
ag11
aa(lp144
I5706
aI130
aI0
aI0
ag11
aa(lp145
I5740
aI131
aI1
aI0
ag11
aa(lp146
I5800
aI132
aI1
aI0
ag11
aa(lp147
I5868
aI133
aI1
aI0
ag11
aa(lp148
I5936
aI134
aI0
aI0
ag15
aa(lp149
I5978
aI135
aI1
aI0
ag11
aa(lp150
I6022
aI136
aI1
aI0
ag11
aa.