(lp0
(lp1
I28
aI0
aI0
aI0
acnumpy.core.multiarray
scalar
p2
(cnumpy
dtype
p3
(S'b1'
p4
I0
I1
tp5
Rp6
(I3
S'|'
p7
NNNI-1
I-1
I0
tp8
bS'\x01'
p9
tp10
Rp11
aa(lp12
I60
aI1
aI0
aI0
ag11
aa(lp13
I203
aI2
aI0
aI0
ag11
aa(lp14
I258
aI3
aI0
aI0
ag11
aa(lp15
I268
aI4
aI1
aI0
ag2
(g6
S'\x00'
p16
tp17
Rp18
aa(lp19
I299
aI5
aI0
aI0
ag11
aa(lp20
I312
aI6
aI1
aI0
ag18
aa(lp21
I345
aI7
aI1
aI0
ag18
aa(lp22
I354
aI8
aI1
aI0
ag18
aa(lp23
I363
aI9
aI1
aI0
ag18
aa(lp24
I373
aI10
aI0
aI0
ag11
aa(lp25
I380
aI11
aI1
aI0
ag18
aa(lp26
I390
aI12
aI0
aI0
ag11
aa(lp27
I400
aI13
aI0
aI0
ag11
aa(lp28
I411
aI14
aI0
aI0
ag11
aa(lp29
I423
aI15
aI0
aI0
ag11
aa(lp30
I446
aI16
aI1
aI0
ag18
aa(lp31
I458
aI17
aI0
aI0
ag11
aa(lp32
I473
aI18
aI0
aI0
ag11
aa(lp33
I486
aI19
aI0
aI0
ag11
aa(lp34
I499
aI20
aI1
aI0
ag18
aa(lp35
I510
aI21
aI0
aI0
ag11
aa(lp36
I522
aI22
aI0
aI0
ag11
aa(lp37
I535
aI23
aI1
aI0
ag18
aa(lp38
I545
aI24
aI1
aI0
ag18
aa(lp39
I565
aI25
aI0
aI0
ag11
aa(lp40
I571
aI26
aI1
aI0
ag18
aa(lp41
I590
aI27
aI0
aI0
ag11
aa(lp42
I605
aI28
aI0
aI0
ag11
aa(lp43
I625
aI29
aI0
aI0
ag11
aa(lp44
I653
aI30
aI0
aI0
ag11
aa(lp45
I678
aI31
aI0
aI0
ag11
aa(lp46
I704
aI32
aI0
aI0
ag11
aa(lp47
I715
aI33
aI0
aI0
ag11
aa(lp48
I728
aI34
aI0
aI0
ag11
aa(lp49
I746
aI35
aI0
aI0
ag11
aa(lp50
I759
aI36
aI1
aI0
ag18
aa(lp51
I771
aI37
aI1
aI0
ag18
aa(lp52
I778
aI38
aI1
aI0
ag18
aa(lp53
I788
aI39
aI1
aI0
ag18
aa(lp54
I865
aI40
aI0
aI0
ag11
aa(lp55
I880
aI41
aI1
aI0
ag18
aa(lp56
I913
aI42
aI0
aI0
ag11
aa(lp57
I924
aI43
aI0
aI0
ag11
aa(lp58
I936
aI44
aI0
aI0
ag11
aa(lp59
I952
aI45
aI0
aI0
ag11
aa(lp60
I965
aI46
aI1
aI0
ag18
aa(lp61
I971
aI47
aI1
aI0
ag18
aa(lp62
I978
aI48
aI1
aI0
ag18
aa(lp63
I989
aI49
aI0
aI0
ag11
aa(lp64
I1001
aI50
aI0
aI0
ag11
aa(lp65
I1022
aI51
aI0
aI0
ag11
aa(lp66
I1036
aI52
aI0
aI0
ag11
aa(lp67
I1060
aI53
aI1
aI0
ag18
aa(lp68
I1067
aI54
aI1
aI0
ag18
aa(lp69
I1081
aI55
aI0
aI0
ag11
aa(lp70
I1087
aI56
aI1
aI0
ag18
aa(lp71
I1101
aI57
aI1
aI0
ag18
aa(lp72
I1108
aI58
aI1
aI0
ag18
aa(lp73
I1120
aI59
aI0
aI0
ag11
aa(lp74
I1132
aI60
aI0
aI0
ag11
aa(lp75
I1145
aI61
aI1
aI0
ag18
aa(lp76
I1234
aI62
aI0
aI0
ag11
aa(lp77
I1240
aI63
aI1
aI0
ag18
aa(lp78
I1256
aI64
aI0
aI0
ag11
aa(lp79
I1265
aI65
aI1
aI0
ag18
aa(lp80
I1275
aI66
aI0
aI0
ag11
aa(lp81
I1286
aI67
aI0
aI0
ag11
aa(lp82
I1292
aI68
aI1
aI0
ag18
aa(lp83
I1301
aI69
aI1
aI0
ag18
aa(lp84
I1317
aI70
aI1
aI0
ag18
aa(lp85
I1338
aI71
aI0
aI0
ag11
aa(lp86
I1349
aI72
aI1
aI0
ag18
aa(lp87
I1361
aI73
aI1
aI0
ag18
aa(lp88
I1374
aI74
aI1
aI0
ag18
aa(lp89
I1387
aI75
aI0
aI0
ag11
aa(lp90
I1399
aI76
aI0
aI0
ag11
aa(lp91
I1409
aI77
aI1
aI0
ag18
aa(lp92
I1423
aI78
aI0
aI0
ag11
aa(lp93
I1437
aI79
aI0
aI0
ag11
aa(lp94
I1457
aI80
aI0
aI0
ag11
aa(lp95
I1470
aI81
aI1
aI0
ag18
aa(lp96
I1479
aI82
aI1
aI0
ag18
aa(lp97
I1502
aI83
aI0
aI0
ag11
aa(lp98
I1523
aI84
aI1
aI0
ag18
aa(lp99
I1538
aI85
aI0
aI0
ag11
aa(lp100
I1553
aI86
aI1
aI0
ag18
aa(lp101
I1569
aI87
aI0
aI0
ag11
aa(lp102
I1574
aI88
aI1
aI0
ag18
aa(lp103
I1589
aI89
aI1
aI0
ag18
aa(lp104
I1605
aI90
aI0
aI0
ag11
aa(lp105
I1618
aI91
aI0
aI0
ag11
aa(lp106
I1630
aI92
aI1
aI0
ag18
aa(lp107
I1640
aI93
aI1
aI0
ag18
aa(lp108
I1653
aI94
aI0
aI0
ag11
aa(lp109
I1676
aI95
aI1
aI0
ag18
aa(lp110
I1701
aI96
aI0
aI0
ag11
aa(lp111
I1710
aI97
aI1
aI0
ag18
aa(lp112
I1717
aI98
aI1
aI0
ag18
aa(lp113
I1730
aI99
aI0
aI0
ag11
aa(lp114
I1740
aI100
aI1
aI0
ag18
aa(lp115
I1745
aI101
aI1
aI0
ag18
aa(lp116
I1761
aI102
aI1
aI0
ag18
aa(lp117
I1953
aI103
aI1
aI0
ag18
aa(lp118
I1960
aI104
aI1
aI0
ag18
aa(lp119
I1998
aI105
aI1
aI0
ag18
aa(lp120
I2006
aI106
aI1
aI0
ag18
aa(lp121
I2020
aI107
aI0
aI0
ag11
aa(lp122
I2028
aI108
aI1
aI0
ag18
aa(lp123
I2039
aI109
aI0
aI0
ag11
aa(lp124
I2058
aI110
aI0
aI0
ag11
aa(lp125
I2118
aI111
aI0
aI0
ag11
aa(lp126
I2130
aI112
aI1
aI0
ag18
aa(lp127
I2135
aI113
aI1
aI0
ag18
aa(lp128
I2179
aI114
aI1
aI0
ag18
aa(lp129
I2195
aI115
aI1
aI0
ag18
aa(lp130
I2209
aI116
aI1
aI0
ag18
aa(lp131
I2216
aI117
aI1
aI0
ag18
aa(lp132
I2223
aI118
aI1
aI0
ag18
aa(lp133
I2237
aI119
aI1
aI0
ag18
aa(lp134
I2269
aI120
aI1
aI0
ag18
aa(lp135
I2285
aI121
aI0
aI0
ag11
aa(lp136
I2307
aI122
aI0
aI0
ag11
aa(lp137
I2319
aI123
aI0
aI0
ag11
aa(lp138
I2329
aI124
aI1
aI0
ag18
aa(lp139
I2340
aI125
aI0
aI0
ag11
aa(lp140
I2394
aI126
aI0
aI0
ag11
aa(lp141
I2405
aI127
aI0
aI0
ag11
aa(lp142
I2422
aI128
aI0
aI0
ag11
aa(lp143
I2437
aI129
aI0
aI0
ag11
aa(lp144
I2447
aI130
aI0
aI0
ag11
aa(lp145
I2462
aI131
aI1
aI0
ag18
aa(lp146
I2473
aI132
aI0
aI0
ag11
aa(lp147
I2484
aI133
aI0
aI0
ag11
aa(lp148
I2525
aI134
aI1
aI0
ag18
aa(lp149
I2536
aI135
aI0
aI0
ag11
aa(lp150
I2548
aI136
aI1
aI0
ag18
aa(lp151
I2560
aI137
aI0
aI0
ag11
aa(lp152
I2576
aI138
aI0
aI0
ag11
aa(lp153
I2594
aI139
aI0
aI0
ag11
aa(lp154
I2608
aI140
aI0
aI0
ag11
aa(lp155
I2616
aI141
aI1
aI0
ag18
aa(lp156
I2634
aI142
aI0
aI0
ag11
aa(lp157
I2652
aI143
aI1
aI0
ag18
aa(lp158
I2677
aI144
aI0
aI0
ag11
aa(lp159
I2695
aI145
aI1
aI0
ag18
aa(lp160
I2707
aI146
aI1
aI0
ag18
aa(lp161
I2720
aI147
aI0
aI0
ag11
aa(lp162
I2745
aI148
aI1
aI0
ag18
aa(lp163
I2756
aI149
aI1
aI0
ag18
aa(lp164
I2780
aI150
aI1
aI0
ag18
aa(lp165
I2808
aI151
aI1
aI0
ag18
aa(lp166
I2821
aI152
aI0
aI0
ag11
aa(lp167
I2841
aI153
aI1
aI0
ag18
aa(lp168
I2857
aI154
aI1
aI0
ag18
aa(lp169
I2862
aI155
aI1
aI0
ag18
aa(lp170
I2876
aI156
aI1
aI0
ag18
aa(lp171
I2891
aI157
aI0
aI0
ag11
aa(lp172
I2903
aI158
aI1
aI0
ag18
aa(lp173
I2927
aI159
aI1
aI0
ag18
aa(lp174
I2941
aI160
aI0
aI0
ag11
aa(lp175
I2952
aI161
aI1
aI0
ag18
aa(lp176
I2957
aI162
aI1
aI0
ag18
aa(lp177
I2966
aI163
aI1
aI0
ag18
aa(lp178
I2977
aI164
aI0
aI0
ag11
aa(lp179
I2994
aI165
aI1
aI0
ag18
aa(lp180
I3000
aI166
aI1
aI0
ag18
aa(lp181
I3012
aI167
aI0
aI0
ag11
aa(lp182
I3027
aI168
aI0
aI0
ag11
aa(lp183
I3043
aI169
aI0
aI0
ag11
aa(lp184
I3056
aI170
aI0
aI0
ag11
aa(lp185
I3065
aI171
aI1
aI0
ag18
aa(lp186
I3081
aI172
aI1
aI0
ag18
aa(lp187
I3087
aI173
aI1
aI0
ag18
aa(lp188
I3100
aI174
aI1
aI0
ag18
aa(lp189
I3112
aI175
aI1
aI0
ag18
aa(lp190
I3127
aI176
aI0
aI0
ag11
aa(lp191
I3144
aI177
aI0
aI0
ag11
aa(lp192
I3156
aI178
aI0
aI0
ag11
aa(lp193
I3187
aI179
aI1
aI0
ag18
aa(lp194
I3199
aI180
aI0
aI0
ag11
aa(lp195
I3205
aI181
aI1
aI0
ag18
aa(lp196
I3219
aI182
aI0
aI0
ag11
aa(lp197
I3247
aI183
aI0
aI0
ag11
aa(lp198
I3256
aI184
aI0
aI0
ag11
aa(lp199
I3266
aI185
aI1
aI0
ag18
aa(lp200
I3283
aI186
aI0
aI0
ag11
aa(lp201
I3297
aI187
aI0
aI0
ag11
aa(lp202
I3308
aI188
aI0
aI0
ag11
aa(lp203
I3329
aI189
aI0
aI0
ag11
aa(lp204
I3366
aI190
aI1
aI0
ag18
aa(lp205
I3380
aI191
aI1
aI0
ag18
aa(lp206
I3394
aI192
aI1
aI0
ag18
aa(lp207
I3423
aI193
aI0
aI0
ag11
aa(lp208
I3442
aI194
aI1
aI0
ag18
aa(lp209
I3454
aI195
aI1
aI0
ag18
aa(lp210
I3466
aI196
aI1
aI0
ag18
aa(lp211
I3498
aI197
aI0
aI0
ag11
aa(lp212
I3540
aI198
aI1
aI0
ag18
aa(lp213
I3550
aI199
aI0
aI0
ag11
aa(lp214
I3559
aI200
aI1
aI0
ag18
aa(lp215
I3571
aI201
aI1
aI0
ag18
aa(lp216
I3579
aI202
aI1
aI0
ag18
aa(lp217
I3589
aI203
aI0
aI0
ag11
aa(lp218
I3603
aI204
aI0
aI0
ag11
aa(lp219
I3617
aI205
aI0
aI0
ag11
aa(lp220
I3629
aI206
aI0
aI0
ag11
aa(lp221
I3646
aI207
aI0
aI0
ag11
aa(lp222
I3675
aI208
aI1
aI0
ag18
aa(lp223
I3683
aI209
aI1
aI0
ag18
aa(lp224
I3706
aI210
aI1
aI0
ag18
aa(lp225
I3717
aI211
aI1
aI0
ag18
aa(lp226
I3725
aI212
aI1
aI0
ag18
aa(lp227
I3739
aI213
aI1
aI0
ag18
aa(lp228
I3745
aI214
aI1
aI0
ag18
aa(lp229
I3755
aI215
aI0
aI0
ag11
aa(lp230
I3780
aI216
aI0
aI0
ag11
aa(lp231
I3795
aI217
aI1
aI0
ag18
aa(lp232
I3803
aI218
aI1
aI0
ag18
aa(lp233
I3820
aI219
aI1
aI0
ag18
aa(lp234
I3830
aI220
aI1
aI0
ag18
aa(lp235
I3843
aI221
aI0
aI0
ag11
aa(lp236
I3888
aI222
aI1
aI0
ag18
aa(lp237
I3899
aI223
aI0
aI0
ag11
aa(lp238
I3922
aI224
aI0
aI0
ag11
aa(lp239
I3936
aI225
aI0
aI0
ag11
aa(lp240
I3956
aI226
aI1
aI0
ag18
aa(lp241
I3972
aI227
aI1
aI0
ag18
aa(lp242
I3984
aI228
aI0
aI0
ag11
aa(lp243
I3991
aI229
aI1
aI0
ag18
aa(lp244
I4004
aI230
aI0
aI0
ag11
aa(lp245
I4032
aI231
aI1
aI0
ag18
aa(lp246
I4043
aI232
aI0
aI0
ag11
aa(lp247
I4054
aI233
aI0
aI0
ag11
aa(lp248
I4080
aI234
aI1
aI0
ag18
aa(lp249
I4091
aI235
aI0
aI0
ag11
aa(lp250
I4103
aI236
aI1
aI0
ag18
aa(lp251
I4140
aI237
aI0
aI0
ag11
aa(lp252
I4154
aI238
aI0
aI0
ag11
aa(lp253
I4162
aI239
aI1
aI0
ag18
aa(lp254
I4181
aI240
aI1
aI0
ag18
aa(lp255
I4198
aI241
aI0
aI0
ag11
aa(lp256
I4209
aI242
aI0
aI0
ag11
aa(lp257
I4329
aI243
aI1
aI0
ag18
aa(lp258
I4365
aI244
aI1
aI0
ag18
aa(lp259
I4377
aI245
aI1
aI0
ag18
aa(lp260
I4393
aI246
aI0
aI0
ag11
aa(lp261
I4422
aI247
aI1
aI0
ag18
aa(lp262
I4444
aI248
aI1
aI0
ag18
aa(lp263
I4452
aI249
aI1
aI0
ag18
aa(lp264
I4463
aI250
aI0
aI0
ag11
aa(lp265
I4475
aI251
aI0
aI0
ag11
aa(lp266
I4488
aI252
aI0
aI0
ag11
aa(lp267
I4495
aI253
aI1
aI0
ag18
aa(lp268
I4507
aI254
aI1
aI0
ag18
aa(lp269
I4536
aI255
aI0
aI0
ag11
aa(lp270
I4573
aI256
aI1
aI0
ag18
aa(lp271
I4585
aI257
aI0
aI0
ag11
aa(lp272
I4599
aI258
aI0
aI0
ag11
aa(lp273
I4642
aI259
aI1
aI0
ag18
aa(lp274
I4655
aI260
aI0
aI0
ag11
aa(lp275
I4668
aI261
aI1
aI0
ag18
aa(lp276
I4684
aI262
aI0
aI0
ag11
aa(lp277
I4694
aI263
aI0
aI0
ag11
aa(lp278
I4706
aI264
aI1
aI0
ag18
aa(lp279
I4719
aI265
aI0
aI0
ag11
aa(lp280
I4732
aI266
aI0
aI0
ag11
aa(lp281
I4744
aI267
aI0
aI0
ag11
aa(lp282
I4756
aI268
aI0
aI0
ag11
aa(lp283
I4769
aI269
aI0
aI0
ag11
aa(lp284
I4785
aI270
aI1
aI0
ag18
aa(lp285
I4815
aI271
aI1
aI0
ag18
aa(lp286
I4823
aI272
aI1
aI0
ag18
aa(lp287
I4840
aI273
aI0
aI0
ag11
aa(lp288
I4855
aI274
aI0
aI0
ag11
aa(lp289
I4872
aI275
aI0
aI0
ag11
aa(lp290
I4887
aI276
aI0
aI0
ag11
aa(lp291
I4919
aI277
aI0
aI0
ag11
aa(lp292
I4939
aI278
aI0
aI0
ag11
aa(lp293
I4948
aI279
aI0
aI0
ag11
aa(lp294
I4965
aI280
aI1
aI0
ag18
aa(lp295
I4991
aI281
aI1
aI0
ag18
aa(lp296
I5017
aI282
aI0
aI0
ag11
aa(lp297
I5038
aI283
aI0
aI0
ag11
aa(lp298
I5065
aI284
aI0
aI0
ag11
aa(lp299
I5079
aI285
aI0
aI0
ag11
aa(lp300
I5118
aI286
aI1
aI0
ag18
aa(lp301
I5141
aI287
aI0
aI0
ag11
aa(lp302
I5154
aI288
aI0
aI0
ag11
aa(lp303
I5200
aI289
aI1
aI0
ag18
aa(lp304
I5228
aI290
aI1
aI0
ag18
aa(lp305
I5239
aI291
aI1
aI0
ag18
aa(lp306
I5247
aI292
aI1
aI0
ag18
aa(lp307
I5267
aI293
aI1
aI0
ag18
aa(lp308
I5280
aI294
aI0
aI0
ag11
aa(lp309
I5295
aI295
aI0
aI0
ag11
aa(lp310
I5335
aI296
aI0
aI0
ag11
aa(lp311
I5343
aI297
aI1
aI0
ag18
aa(lp312
I5356
aI298
aI0
aI0
ag11
aa(lp313
I5379
aI299
aI0
aI0
ag11
aa(lp314
I5386
aI300
aI1
aI0
ag18
aa(lp315
I5403
aI301
aI1
aI0
ag18
aa(lp316
I5414
aI302
aI0
aI0
ag11
aa(lp317
I5433
aI303
aI1
aI0
ag18
aa(lp318
I5444
aI304
aI1
aI0
ag18
aa(lp319
I5486
aI305
aI0
aI0
ag11
aa(lp320
I5498
aI306
aI0
aI0
ag11
aa(lp321
I5512
aI307
aI0
aI0
ag11
aa(lp322
I5537
aI308
aI1
aI0
ag18
aa(lp323
I5556
aI309
aI1
aI0
ag18
aa(lp324
I5574
aI310
aI1
aI0
ag18
aa(lp325
I5590
aI311
aI0
aI0
ag11
aa(lp326
I5610
aI312
aI1
aI0
ag18
aa(lp327
I5624
aI313
aI1
aI0
ag18
aa(lp328
I5646
aI314
aI0
aI0
ag11
aa(lp329
I5656
aI315
aI1
aI0
ag18
aa(lp330
I5666
aI316
aI1
aI0
ag18
aa(lp331
I5692
aI317
aI1
aI0
ag18
aa(lp332
I5715
aI318
aI1
aI0
ag18
aa(lp333
I5730
aI319
aI1
aI0
ag18
aa(lp334
I5742
aI320
aI1
aI0
ag18
aa(lp335
I5755
aI321
aI0
aI0
ag11
aa(lp336
I5764
aI322
aI1
aI0
ag18
aa(lp337
I5782
aI323
aI0
aI0
ag11
aa(lp338
I5797
aI324
aI0
aI0
ag11
aa(lp339
I5803
aI325
aI1
aI0
ag18
aa(lp340
I5846
aI326
aI0
aI0
ag11
aa(lp341
I5857
aI327
aI0
aI0
ag11
aa(lp342
I5866
aI328
aI1
aI0
ag18
aa(lp343
I5880
aI329
aI1
aI0
ag18
aa(lp344
I5887
aI330
aI1
aI0
ag18
aa(lp345
I5903
aI331
aI0
aI0
ag11
aa(lp346
I5909
aI332
aI1
aI0
ag18
aa(lp347
I5922
aI333
aI0
aI0
ag11
aa(lp348
I5946
aI334
aI0
aI0
ag11
aa(lp349
I5958
aI335
aI0
aI0
ag11
aa(lp350
I5971
aI336
aI0
aI0
ag11
aa(lp351
I5981
aI337
aI0
aI0
ag11
aa(lp352
I5994
aI338
aI0
aI0
ag11
aa(lp353
I6012
aI339
aI1
aI0
ag18
aa.