(lp0
(lp1
I200
aI0
aI0
aI0
acnumpy.core.multiarray
scalar
p2
(cnumpy
dtype
p3
(S'b1'
p4
I0
I1
tp5
Rp6
(I3
S'|'
p7
NNNI-1
I-1
I0
tp8
bS'\x00'
p9
tp10
Rp11
aa(lp12
I208
aI1
aI1
aI0
ag11
aa(lp13
I253
aI2
aI0
aI0
ag2
(g6
S'\x01'
p14
tp15
Rp16
aa(lp17
I265
aI3
aI1
aI0
ag11
aa(lp18
I272
aI4
aI1
aI0
ag11
aa(lp19
I341
aI5
aI0
aI0
ag16
aa(lp20
I349
aI6
aI1
aI0
ag11
aa(lp21
I354
aI7
aI1
aI0
ag11
aa(lp22
I362
aI8
aI1
aI0
ag11
aa(lp23
I388
aI9
aI1
aI0
ag11
aa(lp24
I411
aI10
aI1
aI0
ag11
aa(lp25
I454
aI11
aI0
aI0
ag16
aa(lp26
I504
aI12
aI0
aI0
ag16
aa(lp27
I515
aI13
aI1
aI0
ag11
aa(lp28
I557
aI14
aI1
aI0
ag11
aa(lp29
I588
aI15
aI1
aI0
ag11
aa(lp30
I594
aI16
aI1
aI0
ag11
aa(lp31
I604
aI17
aI1
aI0
ag11
aa(lp32
I653
aI18
aI0
aI0
ag16
aa(lp33
I672
aI19
aI1
aI0
ag11
aa(lp34
I712
aI20
aI0
aI0
ag16
aa(lp35
I725
aI21
aI1
aI0
ag11
aa(lp36
I805
aI22
aI1
aI0
ag11
aa(lp37
I815
aI23
aI1
aI0
ag11
aa(lp38
I834
aI24
aI1
aI0
ag11
aa(lp39
I856
aI25
aI1
aI0
ag11
aa(lp40
I877
aI26
aI1
aI0
ag11
aa(lp41
I897
aI27
aI1
aI0
ag11
aa(lp42
I921
aI28
aI0
aI0
ag16
aa(lp43
I936
aI29
aI1
aI0
ag11
aa(lp44
I951
aI30
aI1
aI0
ag11
aa(lp45
I959
aI31
aI1
aI0
ag11
aa(lp46
I972
aI32
aI1
aI0
ag11
aa(lp47
I981
aI33
aI1
aI0
ag11
aa(lp48
I1002
aI34
aI1
aI0
ag11
aa(lp49
I1073
aI35
aI1
aI0
ag11
aa(lp50
I1200
aI36
aI1
aI0
ag11
aa(lp51
I1248
aI37
aI1
aI0
ag11
aa(lp52
I1274
aI38
aI0
aI0
ag16
aa(lp53
I1394
aI39
aI1
aI0
ag11
aa(lp54
I1410
aI40
aI1
aI0
ag11
aa(lp55
I1432
aI41
aI0
aI0
ag16
aa(lp56
I1627
aI42
aI0
aI0
ag16
aa(lp57
I1649
aI43
aI0
aI0
ag16
aa(lp58
I1656
aI44
aI1
aI0
ag11
aa(lp59
I1676
aI45
aI1
aI0
ag11
aa(lp60
I1700
aI46
aI0
aI0
ag16
aa(lp61
I1738
aI47
aI0
aI0
ag16
aa(lp62
I1756
aI48
aI1
aI0
ag11
aa(lp63
I1786
aI49
aI1
aI0
ag11
aa(lp64
I1828
aI50
aI1
aI0
ag11
aa(lp65
I1877
aI51
aI1
aI0
ag11
aa(lp66
I1888
aI52
aI1
aI0
ag11
aa(lp67
I1896
aI53
aI1
aI0
ag11
aa(lp68
I1938
aI54
aI1
aI0
ag11
aa(lp69
I1948
aI55
aI1
aI0
ag11
aa(lp70
I1971
aI56
aI1
aI0
ag11
aa(lp71
I1989
aI57
aI1
aI0
ag11
aa(lp72
I2001
aI58
aI0
aI0
ag16
aa(lp73
I2085
aI59
aI0
aI0
ag16
aa(lp74
I2102
aI60
aI0
aI0
ag16
aa(lp75
I2141
aI61
aI1
aI0
ag11
aa(lp76
I2155
aI62
aI1
aI0
ag11
aa(lp77
I2165
aI63
aI1
aI0
ag11
aa(lp78
I2173
aI64
aI1
aI0
ag11
aa(lp79
I2246
aI65
aI0
aI0
ag16
aa(lp80
I2254
aI66
aI1
aI0
ag11
aa(lp81
I2262
aI67
aI1
aI0
ag11
aa(lp82
I2271
aI68
aI1
aI0
ag11
aa(lp83
I2354
aI69
aI0
aI0
ag16
aa(lp84
I2362
aI70
aI1
aI0
ag11
aa(lp85
I2372
aI71
aI1
aI0
ag11
aa(lp86
I2391
aI72
aI1
aI0
ag11
aa(lp87
I2412
aI73
aI1
aI0
ag11
aa(lp88
I2430
aI74
aI0
aI0
ag16
aa(lp89
I2442
aI75
aI1
aI0
ag11
aa(lp90
I2464
aI76
aI1
aI0
ag11
aa(lp91
I2560
aI77
aI1
aI0
ag11
aa(lp92
I2580
aI78
aI0
aI0
ag16
aa(lp93
I2593
aI79
aI1
aI0
ag11
aa(lp94
I2613
aI80
aI1
aI0
ag11
aa(lp95
I2647
aI81
aI1
aI0
ag11
aa(lp96
I2669
aI82
aI0
aI0
ag16
aa(lp97
I2685
aI83
aI0
aI0
ag16
aa(lp98
I2698
aI84
aI1
aI0
ag11
aa(lp99
I2757
aI85
aI0
aI0
ag16
aa(lp100
I2767
aI86
aI1
aI0
ag11
aa(lp101
I2784
aI87
aI1
aI0
ag11
aa(lp102
I2794
aI88
aI1
aI0
ag11
aa(lp103
I2801
aI89
aI1
aI0
ag11
aa(lp104
I2811
aI90
aI1
aI0
ag11
aa(lp105
I2834
aI91
aI1
aI0
ag11
aa(lp106
I2879
aI92
aI1
aI0
ag11
aa(lp107
I2888
aI93
aI1
aI0
ag11
aa(lp108
I2924
aI94
aI0
aI0
ag16
aa(lp109
I2963
aI95
aI1
aI0
ag11
aa(lp110
I2977
aI96
aI0
aI0
ag16
aa(lp111
I3177
aI97
aI0
aI0
ag11
aa(lp112
I3191
aI98
aI1
aI0
ag11
aa(lp113
I3289
aI99
aI1
aI0
ag11
aa(lp114
I3295
aI100
aI1
aI0
ag11
aa(lp115
I3305
aI100
aI1
aI0
ag11
aa.