(lp0
(lp1
I14
aI0
aI1
aI0
acnumpy.core.multiarray
scalar
p2
(cnumpy
dtype
p3
(S'b1'
p4
I0
I1
tp5
Rp6
(I3
S'|'
p7
NNNI-1
I-1
I0
tp8
bS'\x00'
p9
tp10
Rp11
aa(lp12
I214
aI1
aI0
aI0
ag11
aa(lp13
I314
aI2
aI1
aI0
ag11
aa(lp14
I479
aI3
aI0
aI0
ag2
(g6
S'\x01'
p15
tp16
Rp17
aa(lp18
I531
aI4
aI1
aI0
ag11
aa(lp19
I579
aI5
aI1
aI0
ag11
aa(lp20
I627
aI6
aI1
aI0
ag11
aa(lp21
I740
aI7
aI1
aI0
ag11
aa(lp22
I850
aI8
aI1
aI0
ag11
aa(lp23
I1050
aI9
aI0
aI0
ag11
aa(lp24
I1250
aI10
aI0
aI0
ag11
aa(lp25
I1406
aI11
aI1
aI0
ag11
aa(lp26
I1606
aI12
aI0
aI0
ag11
aa(lp27
I1806
aI13
aI0
aI0
ag11
aa(lp28
I1858
aI14
aI1
aI0
ag11
aa(lp29
I1900
aI15
aI0
aI0
ag17
aa(lp30
I2100
aI16
aI0
aI0
ag11
aa(lp31
I2203
aI17
aI1
aI0
ag11
aa(lp32
I2403
aI18
aI0
aI0
ag11
aa(lp33
I2603
aI19
aI0
aI0
ag11
aa(lp34
I2707
aI20
aI1
aI0
ag11
aa(lp35
I2760
aI21
aI1
aI0
ag11
aa(lp36
I2960
aI22
aI0
aI0
ag11
aa(lp37
I3160
aI23
aI0
aI0
ag11
aa(lp38
I3360
aI24
aI0
aI0
ag11
aa(lp39
I3560
aI25
aI0
aI0
ag11
aa(lp40
I3759
aI26
aI1
aI0
ag11
aa(lp41
I3959
aI27
aI0
aI0
ag11
aa(lp42
I4159
aI28
aI0
aI0
ag11
aa(lp43
I4262
aI29
aI1
aI0
ag11
aa(lp44
I4364
aI30
aI1
aI0
ag11
aa(lp45
I4553
aI31
aI1
aI0
ag11
aa(lp46
I4753
aI32
aI0
aI0
ag11
aa(lp47
I4953
aI33
aI0
aI0
ag11
aa(lp48
I5084
aI34
aI1
aI0
ag11
aa(lp49
I5281
aI35
aI0
aI0
ag17
aa(lp50
I5481
aI36
aI0
aI0
ag11
aa(lp51
I5681
aI37
aI0
aI0
ag11
aa(lp52
I5881
aI38
aI0
aI0
ag11
aa(lp53
I6081
aI39
aI0
aI0
ag11
aa.