(lp0
(lp1
I185
aI0
aI1
aI0
acnumpy.core.multiarray
scalar
p2
(cnumpy
dtype
p3
(S'b1'
p4
I0
I1
tp5
Rp6
(I3
S'|'
p7
NNNI-1
I-1
I0
tp8
bS'\x00'
p9
tp10
Rp11
aa(lp12
I385
aI1
aI0
aI0
ag11
aa(lp13
I398
aI2
aI0
aI0
ag2
(g6
S'\x01'
p14
tp15
Rp16
aa(lp17
I405
aI3
aI1
aI0
ag11
aa(lp18
I503
aI4
aI1
aI0
ag11
aa(lp19
I523
aI5
aI0
aI0
ag16
aa(lp20
I527
aI6
aI1
aI0
ag11
aa(lp21
I533
aI7
aI1
aI0
ag11
aa(lp22
I554
aI8
aI0
aI0
ag16
aa(lp23
I571
aI9
aI0
aI0
ag16
aa(lp24
I586
aI10
aI0
aI0
ag16
aa(lp25
I601
aI11
aI0
aI0
ag16
aa(lp26
I616
aI12
aI0
aI0
ag16
aa(lp27
I639
aI13
aI1
aI0
ag11
aa(lp28
I656
aI14
aI1
aI0
ag11
aa(lp29
I689
aI15
aI1
aI0
ag11
aa(lp30
I747
aI16
aI1
aI0
ag11
aa(lp31
I758
aI17
aI1
aI0
ag11
aa(lp32
I771
aI18
aI0
aI0
ag16
aa(lp33
I777
aI19
aI1
aI0
ag11
aa(lp34
I793
aI20
aI1
aI0
ag11
aa(lp35
I850
aI21
aI1
aI0
ag11
aa(lp36
I860
aI22
aI1
aI0
ag11
aa(lp37
I872
aI23
aI0
aI0
ag16
aa(lp38
I893
aI24
aI1
aI0
ag11
aa(lp39
I923
aI25
aI1
aI0
ag11
aa(lp40
I930
aI26
aI1
aI0
ag11
aa(lp41
I940
aI27
aI0
aI0
ag16
aa(lp42
I950
aI28
aI0
aI0
ag16
aa(lp43
I961
aI29
aI0
aI0
ag16
aa(lp44
I972
aI30
aI1
aI0
ag11
aa(lp45
I983
aI31
aI0
aI0
ag16
aa(lp46
I995
aI32
aI0
aI0
ag16
aa(lp47
I1007
aI33
aI0
aI0
ag16
aa(lp48
I1018
aI34
aI0
aI0
ag16
aa(lp49
I1027
aI35
aI1
aI0
ag11
aa(lp50
I1032
aI36
aI1
aI0
ag11
aa(lp51
I1043
aI37
aI1
aI0
ag11
aa(lp52
I1049
aI38
aI1
aI0
ag11
aa(lp53
I1054
aI39
aI1
aI0
ag11
aa(lp54
I1070
aI40
aI0
aI0
ag16
aa(lp55
I1093
aI41
aI1
aI0
ag11
aa(lp56
I1107
aI42
aI0
aI0
ag16
aa(lp57
I1123
aI43
aI1
aI0
ag11
aa(lp58
I1145
aI44
aI1
aI0
ag11
aa(lp59
I1233
aI45
aI0
aI0
ag16
aa(lp60
I1248
aI46
aI0
aI0
ag16
aa(lp61
I1264
aI47
aI0
aI0
ag16
aa(lp62
I1464
aI48
aI0
aI0
ag11
aa(lp63
I1478
aI49
aI1
aI0
ag11
aa(lp64
I1488
aI50
aI0
aI0
ag16
aa(lp65
I1493
aI51
aI1
aI0
ag11
aa(lp66
I1509
aI52
aI1
aI0
ag11
aa(lp67
I1540
aI53
aI1
aI0
ag11
aa(lp68
I1552
aI54
aI0
aI0
ag16
aa(lp69
I1567
aI55
aI0
aI0
ag16
aa(lp70
I1572
aI56
aI1
aI0
ag11
aa(lp71
I1582
aI57
aI1
aI0
ag11
aa(lp72
I1621
aI58
aI1
aI0
ag11
aa(lp73
I1632
aI59
aI0
aI0
ag16
aa(lp74
I1647
aI60
aI0
aI0
ag16
aa(lp75
I1672
aI61
aI1
aI0
ag11
aa(lp76
I1680
aI62
aI1
aI0
ag11
aa(lp77
I1690
aI63
aI0
aI0
ag16
aa(lp78
I1696
aI64
aI1
aI0
ag11
aa(lp79
I1709
aI65
aI0
aI0
ag16
aa(lp80
I1720
aI66
aI1
aI0
ag11
aa(lp81
I1736
aI67
aI0
aI0
ag16
aa(lp82
I1764
aI68
aI1
aI0
ag11
aa(lp83
I1786
aI69
aI1
aI0
ag11
aa(lp84
I1802
aI70
aI1
aI0
ag11
aa(lp85
I1814
aI71
aI1
aI0
ag11
aa(lp86
I1829
aI72
aI0
aI0
ag16
aa(lp87
I1840
aI73
aI0
aI0
ag16
aa(lp88
I1857
aI74
aI0
aI0
ag16
aa(lp89
I1872
aI75
aI0
aI0
ag16
aa(lp90
I1877
aI76
aI1
aI0
ag11
aa(lp91
I1889
aI77
aI0
aI0
ag16
aa(lp92
I1902
aI78
aI1
aI0
ag11
aa(lp93
I1917
aI79
aI1
aI0
ag11
aa(lp94
I1929
aI80
aI0
aI0
ag16
aa(lp95
I1941
aI81
aI1
aI0
ag11
aa(lp96
I1954
aI82
aI0
aI0
ag16
aa(lp97
I1960
aI83
aI1
aI0
ag11
aa(lp98
I1995
aI84
aI0
aI0
ag16
aa(lp99
I2005
aI85
aI1
aI0
ag11
aa(lp100
I2018
aI86
aI0
aI0
ag16
aa(lp101
I2055
aI87
aI1
aI0
ag11
aa(lp102
I2068
aI88
aI0
aI0
ag16
aa(lp103
I2080
aI89
aI1
aI0
ag11
aa(lp104
I2085
aI90
aI1
aI0
ag11
aa(lp105
I2104
aI91
aI0
aI0
ag16
aa(lp106
I2110
aI92
aI1
aI0
ag11
aa(lp107
I2116
aI93
aI1
aI0
ag11
aa(lp108
I2126
aI94
aI0
aI0
ag16
aa(lp109
I2152
aI95
aI1
aI0
ag11
aa(lp110
I2168
aI96
aI0
aI0
ag16
aa(lp111
I2182
aI97
aI0
aI0
ag16
aa(lp112
I2198
aI98
aI1
aI0
ag11
aa(lp113
I2215
aI99
aI1
aI0
ag11
aa(lp114
I2225
aI100
aI0
aI0
ag16
aa(lp115
I2237
aI101
aI1
aI0
ag11
aa(lp116
I2260
aI102
aI0
aI0
ag16
aa(lp117
I2265
aI103
aI1
aI0
ag11
aa(lp118
I2303
aI104
aI0
aI0
ag16
aa(lp119
I2326
aI105
aI1
aI0
ag11
aa(lp120
I2338
aI106
aI0
aI0
ag16
aa(lp121
I2364
aI107
aI1
aI0
ag11
aa(lp122
I2371
aI108
aI1
aI0
ag11
aa(lp123
I2385
aI109
aI0
aI0
ag16
aa(lp124
I2398
aI110
aI0
aI0
ag16
aa(lp125
I2413
aI111
aI1
aI0
ag11
aa(lp126
I2421
aI112
aI1
aI0
ag11
aa(lp127
I2428
aI113
aI1
aI0
ag11
aa(lp128
I2471
aI114
aI0
aI0
ag16
aa(lp129
I2493
aI115
aI1
aI0
ag11
aa(lp130
I2510
aI116
aI0
aI0
ag16
aa(lp131
I2531
aI117
aI1
aI0
ag11
aa(lp132
I2548
aI118
aI1
aI0
ag11
aa(lp133
I2617
aI119
aI0
aI0
ag16
aa(lp134
I2637
aI120
aI1
aI0
ag11
aa(lp135
I2667
aI121
aI0
aI0
ag16
aa(lp136
I2672
aI122
aI1
aI0
ag11
aa(lp137
I2685
aI123
aI0
aI0
ag16
aa(lp138
I2702
aI124
aI0
aI0
ag16
aa(lp139
I2707
aI125
aI1
aI0
ag11
aa(lp140
I2720
aI126
aI0
aI0
ag16
aa(lp141
I2762
aI127
aI1
aI0
ag11
aa(lp142
I2777
aI128
aI1
aI0
ag11
aa(lp143
I2790
aI129
aI0
aI0
ag16
aa(lp144
I2806
aI130
aI0
aI0
ag16
aa(lp145
I2814
aI131
aI1
aI0
ag11
aa(lp146
I2826
aI132
aI0
aI0
ag16
aa(lp147
I2878
aI133
aI1
aI0
ag11
aa(lp148
I2882
aI134
aI1
aI0
ag11
aa(lp149
I2888
aI135
aI1
aI0
ag11
aa(lp150
I2907
aI136
aI0
aI0
ag16
aa(lp151
I2920
aI137
aI0
aI0
ag16
aa(lp152
I2933
aI138
aI0
aI0
ag16
aa(lp153
I2944
aI139
aI0
aI0
ag16
aa(lp154
I2957
aI140
aI0
aI0
ag16
aa(lp155
I2966
aI141
aI1
aI0
ag11
aa(lp156
I2980
aI142
aI1
aI0
ag11
aa(lp157
I2992
aI143
aI1
aI0
ag11
aa(lp158
I3007
aI144
aI0
aI0
ag16
aa(lp159
I3017
aI145
aI1
aI0
ag11
aa(lp160
I3028
aI146
aI0
aI0
ag16
aa(lp161
I3050
aI147
aI1
aI0
ag11
aa(lp162
I3062
aI148
aI1
aI0
ag11
aa(lp163
I3087
aI149
aI1
aI0
ag11
aa(lp164
I3164
aI150
aI1
aI0
ag11
aa(lp165
I3171
aI151
aI1
aI0
ag11
aa(lp166
I3228
aI152
aI1
aI0
ag16
aa(lp167
I3234
aI153
aI1
aI0
ag11
aa(lp168
I3241
aI154
aI1
aI0
ag11
aa(lp169
I3256
aI155
aI1
aI0
ag11
aa(lp170
I3268
aI156
aI1
aI0
ag11
aa(lp171
I3306
aI157
aI1
aI0
ag11
aa(lp172
I3318
aI158
aI0
aI0
ag16
aa(lp173
I3330
aI159
aI0
aI0
ag16
aa(lp174
I3339
aI160
aI1
aI0
ag11
aa(lp175
I3351
aI161
aI0
aI0
ag16
aa(lp176
I3367
aI162
aI1
aI0
ag11
aa(lp177
I3382
aI163
aI1
aI0
ag11
aa(lp178
I3401
aI164
aI0
aI0
ag16
aa(lp179
I3422
aI165
aI0
aI0
ag16
aa(lp180
I3435
aI166
aI0
aI0
ag16
aa(lp181
I3442
aI167
aI1
aI0
ag11
aa(lp182
I3451
aI168
aI1
aI0
ag11
aa(lp183
I3469
aI169
aI0
aI0
ag16
aa(lp184
I3482
aI170
aI0
aI0
ag16
aa(lp185
I3489
aI171
aI1
aI0
ag11
aa(lp186
I3494
aI172
aI1
aI0
ag11
aa(lp187
I3507
aI173
aI0
aI0
ag16
aa(lp188
I3522
aI174
aI0
aI0
ag16
aa(lp189
I3535
aI175
aI1
aI0
ag11
aa(lp190
I3546
aI176
aI0
aI0
ag16
aa(lp191
I3551
aI177
aI1
aI0
ag11
aa(lp192
I3571
aI178
aI0
aI0
ag16
aa(lp193
I3584
aI179
aI0
aI0
ag16
aa(lp194
I3596
aI180
aI1
aI0
ag11
aa(lp195
I3610
aI181
aI0
aI0
ag16
aa(lp196
I3627
aI182
aI0
aI0
ag16
aa(lp197
I3645
aI183
aI0
aI0
ag16
aa(lp198
I3658
aI184
aI1
aI0
ag11
aa(lp199
I3712
aI185
aI0
aI0
ag16
aa(lp200
I3724
aI186
aI1
aI0
ag11
aa(lp201
I3742
aI187
aI1
aI0
ag11
aa(lp202
I3750
aI188
aI1
aI0
ag11
aa(lp203
I3757
aI189
aI1
aI0
ag11
aa(lp204
I3768
aI190
aI1
aI0
ag11
aa(lp205
I3775
aI191
aI1
aI0
ag11
aa(lp206
I3784
aI192
aI1
aI0
ag11
aa(lp207
I3791
aI193
aI1
aI0
ag11
aa(lp208
I3804
aI194
aI1
aI0
ag11
aa(lp209
I3820
aI195
aI1
aI0
ag11
aa(lp210
I3836
aI196
aI0
aI0
ag16
aa(lp211
I3845
aI197
aI1
aI0
ag11
aa(lp212
I3857
aI198
aI1
aI0
ag11
aa(lp213
I3869
aI199
aI0
aI0
ag16
aa(lp214
I3883
aI200
aI0
aI0
ag16
aa(lp215
I3908
aI201
aI1
aI0
ag11
aa(lp216
I3924
aI202
aI1
aI0
ag11
aa(lp217
I3932
aI203
aI1
aI0
ag11
aa(lp218
I3945
aI204
aI0
aI0
ag16
aa(lp219
I3956
aI205
aI0
aI0
ag16
aa(lp220
I3966
aI206
aI0
aI0
ag16
aa(lp221
I3987
aI207
aI1
aI0
ag11
aa(lp222
I3999
aI208
aI1
aI0
ag11
aa(lp223
I4008
aI209
aI1
aI0
ag11
aa(lp224
I4020
aI210
aI0
aI0
ag16
aa(lp225
I4033
aI211
aI1
aI0
ag11
aa(lp226
I4073
aI212
aI1
aI0
ag11
aa(lp227
I4079
aI213
aI1
aI0
ag11
aa(lp228
I4093
aI214
aI1
aI0
ag11
aa(lp229
I4105
aI215
aI0
aI0
ag16
aa(lp230
I4117
aI216
aI1
aI0
ag11
aa(lp231
I4128
aI217
aI0
aI0
ag16
aa(lp232
I4142
aI218
aI1
aI0
ag11
aa(lp233
I4173
aI219
aI0
aI0
ag16
aa(lp234
I4185
aI220
aI0
aI0
ag16
aa(lp235
I4200
aI221
aI0
aI0
ag16
aa(lp236
I4231
aI222
aI0
aI0
ag16
aa(lp237
I4241
aI223
aI1
aI0
ag11
aa(lp238
I4264
aI224
aI1
aI0
ag11
aa(lp239
I4276
aI225
aI1
aI0
ag11
aa(lp240
I4283
aI226
aI1
aI0
ag11
aa(lp241
I4290
aI227
aI1
aI0
ag11
aa(lp242
I4298
aI228
aI1
aI0
ag11
aa(lp243
I4311
aI229
aI0
aI0
ag16
aa(lp244
I4334
aI230
aI1
aI0
ag11
aa(lp245
I4341
aI231
aI1
aI0
ag11
aa(lp246
I4359
aI232
aI1
aI0
ag11
aa(lp247
I4375
aI233
aI0
aI0
ag16
aa(lp248
I4395
aI234
aI1
aI0
ag11
aa(lp249
I4410
aI235
aI1
aI0
ag11
aa(lp250
I4421
aI236
aI0
aI0
ag16
aa(lp251
I4434
aI237
aI1
aI0
ag11
aa(lp252
I4453
aI238
aI1
aI0
ag11
aa(lp253
I4461
aI239
aI1
aI0
ag11
aa(lp254
I4469
aI240
aI1
aI0
ag11
aa(lp255
I4476
aI241
aI1
aI0
ag11
aa(lp256
I4488
aI242
aI0
aI0
ag16
aa(lp257
I4499
aI243
aI1
aI0
ag11
aa(lp258
I4507
aI244
aI1
aI0
ag11
aa(lp259
I4519
aI245
aI1
aI0
ag11
aa(lp260
I4534
aI246
aI0
aI0
ag16
aa(lp261
I4580
aI247
aI0
aI0
ag16
aa(lp262
I4593
aI248
aI0
aI0
ag16
aa(lp263
I4603
aI249
aI1
aI0
ag11
aa(lp264
I4613
aI250
aI1
aI0
ag11
aa(lp265
I4620
aI251
aI1
aI0
ag11
aa(lp266
I4628
aI252
aI1
aI0
ag11
aa(lp267
I4635
aI253
aI1
aI0
ag11
aa(lp268
I4650
aI254
aI1
aI0
ag11
aa(lp269
I4658
aI255
aI1
aI0
ag11
aa(lp270
I4669
aI256
aI1
aI0
ag11
aa(lp271
I4689
aI257
aI1
aI0
ag11
aa(lp272
I4700
aI258
aI0
aI0
ag16
aa(lp273
I4710
aI259
aI1
aI0
ag11
aa(lp274
I4721
aI260
aI1
aI0
ag11
aa(lp275
I4742
aI261
aI0
aI0
ag16
aa(lp276
I4753
aI262
aI1
aI0
ag11
aa(lp277
I4781
aI263
aI1
aI0
ag11
aa(lp278
I4804
aI264
aI0
aI0
ag16
aa(lp279
I4816
aI265
aI1
aI0
ag11
aa(lp280
I4836
aI266
aI0
aI0
ag16
aa(lp281
I4877
aI267
aI1
aI0
ag11
aa(lp282
I4891
aI268
aI0
aI0
ag16
aa(lp283
I4900
aI269
aI1
aI0
ag11
aa(lp284
I4920
aI270
aI0
aI0
ag16
aa(lp285
I4931
aI271
aI0
aI0
ag16
aa(lp286
I4944
aI272
aI1
aI0
ag11
aa(lp287
I4951
aI273
aI1
aI0
ag11
aa(lp288
I4959
aI274
aI1
aI0
ag11
aa(lp289
I4965
aI275
aI1
aI0
ag11
aa(lp290
I5003
aI276
aI1
aI0
ag11
aa(lp291
I5008
aI277
aI1
aI0
ag11
aa(lp292
I5019
aI278
aI0
aI0
ag16
aa(lp293
I5096
aI279
aI1
aI0
ag11
aa(lp294
I5104
aI280
aI1
aI0
ag11
aa(lp295
I5117
aI281
aI0
aI0
ag16
aa(lp296
I5123
aI282
aI1
aI0
ag11
aa(lp297
I5136
aI283
aI0
aI0
ag16
aa(lp298
I5149
aI284
aI1
aI0
ag11
aa(lp299
I5164
aI285
aI0
aI0
ag16
aa(lp300
I5189
aI286
aI1
aI0
ag11
aa(lp301
I5203
aI287
aI0
aI0
ag16
aa(lp302
I5217
aI288
aI0
aI0
ag16
aa(lp303
I5233
aI289
aI0
aI0
ag16
aa(lp304
I5245
aI290
aI0
aI0
ag16
aa(lp305
I5267
aI291
aI0
aI0
ag16
aa(lp306
I5310
aI292
aI0
aI0
ag16
aa(lp307
I5319
aI293
aI1
aI0
ag11
aa(lp308
I5327
aI294
aI1
aI0
ag11
aa(lp309
I5340
aI295
aI1
aI0
ag11
aa(lp310
I5360
aI296
aI0
aI0
ag16
aa(lp311
I5373
aI297
aI0
aI0
ag16
aa(lp312
I5381
aI298
aI1
aI0
ag11
aa(lp313
I5395
aI299
aI1
aI0
ag11
aa(lp314
I5415
aI300
aI1
aI0
ag11
aa(lp315
I5421
aI301
aI1
aI0
ag11
aa(lp316
I5434
aI302
aI0
aI0
ag16
aa(lp317
I5449
aI303
aI0
aI0
ag16
aa(lp318
I5460
aI304
aI1
aI0
ag11
aa(lp319
I5472
aI305
aI0
aI0
ag16
aa(lp320
I5496
aI306
aI1
aI0
ag11
aa(lp321
I5532
aI307
aI1
aI0
ag11
aa(lp322
I5552
aI308
aI1
aI0
ag11
aa(lp323
I5569
aI309
aI0
aI0
ag16
aa(lp324
I5579
aI310
aI0
aI0
ag16
aa(lp325
I5596
aI311
aI0
aI0
ag16
aa(lp326
I5611
aI312
aI1
aI0
ag11
aa(lp327
I5621
aI313
aI0
aI0
ag16
aa(lp328
I5632
aI314
aI0
aI0
ag16
aa(lp329
I5645
aI315
aI1
aI0
ag11
aa(lp330
I5651
aI316
aI1
aI0
ag11
aa(lp331
I5684
aI317
aI0
aI0
ag16
aa(lp332
I5694
aI318
aI0
aI0
ag16
aa(lp333
I5708
aI319
aI1
aI0
ag11
aa(lp334
I5732
aI320
aI1
aI0
ag11
aa(lp335
I5744
aI321
aI1
aI0
ag11
aa(lp336
I5756
aI322
aI0
aI0
ag16
aa(lp337
I5772
aI323
aI0
aI0
ag16
aa(lp338
I5792
aI324
aI0
aI0
ag16
aa(lp339
I5807
aI325
aI1
aI0
ag11
aa(lp340
I5827
aI326
aI1
aI0
ag11
aa(lp341
I5839
aI327
aI0
aI0
ag16
aa(lp342
I5859
aI328
aI0
aI0
ag16
aa(lp343
I5871
aI329
aI0
aI0
ag16
aa(lp344
I5885
aI330
aI0
aI0
ag16
aa(lp345
I5894
aI331
aI1
aI0
ag11
aa(lp346
I5922
aI332
aI1
aI0
ag11
aa(lp347
I5929
aI333
aI1
aI0
ag11
aa(lp348
I5941
aI334
aI1
aI0
ag11
aa(lp349
I5955
aI335
aI0
aI0
ag16
aa(lp350
I5964
aI336
aI0
aI0
ag16
aa(lp351
I5977
aI337
aI0
aI0
ag16
aa(lp352
I5984
aI338
aI1
aI0
ag11
aa(lp353
I6002
aI339
aI1
aI0
ag11
aa.