(lp0
(lp1
I200
aI0
aI0
aI0
acnumpy.core.multiarray
scalar
p2
(cnumpy
dtype
p3
(S'b1'
p4
I0
I1
tp5
Rp6
(I3
S'|'
p7
NNNI-1
I-1
I0
tp8
bS'\x00'
p9
tp10
Rp11
aa(lp12
I228
aI1
aI1
aI0
ag11
aa(lp13
I428
aI2
aI0
aI0
ag11
aa(lp14
I628
aI3
aI0
aI0
ag11
aa(lp15
I646
aI4
aI1
aI0
ag11
aa(lp16
I739
aI5
aI1
aI0
ag11
aa(lp17
I835
aI6
aI0
aI0
ag2
(g6
S'\x01'
p18
tp19
Rp20
aa(lp21
I1035
aI7
aI0
aI0
ag11
aa(lp22
I1043
aI8
aI1
aI0
ag11
aa(lp23
I1097
aI9
aI1
aI0
ag11
aa(lp24
I1112
aI10
aI1
aI0
ag11
aa(lp25
I1142
aI11
aI1
aI0
ag11
aa(lp26
I1342
aI12
aI0
aI0
ag11
aa(lp27
I1367
aI13
aI1
aI0
ag11
aa(lp28
I1485
aI14
aI1
aI0
ag11
aa(lp29
I1571
aI15
aI1
aI0
ag11
aa(lp30
I1771
aI16
aI0
aI0
ag11
aa(lp31
I1792
aI17
aI1
aI0
ag11
aa(lp32
I1800
aI18
aI1
aI0
ag11
aa(lp33
I2000
aI19
aI0
aI0
ag11
aa(lp34
I2059
aI20
aI1
aI0
ag11
aa(lp35
I2259
aI21
aI0
aI0
ag11
aa(lp36
I2459
aI22
aI0
aI0
ag11
aa(lp37
I2482
aI23
aI1
aI0
ag11
aa(lp38
I2682
aI24
aI0
aI0
ag11
aa(lp39
I2712
aI25
aI1
aI0
ag11
aa(lp40
I2770
aI26
aI1
aI0
ag11
aa(lp41
I2970
aI27
aI0
aI0
ag11
aa(lp42
I3170
aI28
aI0
aI0
ag11
aa(lp43
I3369
aI29
aI1
aI0
ag11
aa(lp44
I3569
aI30
aI0
aI0
ag11
aa(lp45
I3769
aI31
aI0
aI0
ag11
aa(lp46
I3969
aI32
aI0
aI0
ag11
aa(lp47
I4169
aI33
aI0
aI0
ag11
aa(lp48
I4369
aI34
aI0
aI0
ag11
aa(lp49
I4392
aI35
aI0
aI0
ag20
aa(lp50
I4523
aI36
aI1
aI0
ag11
aa(lp51
I4615
aI37
aI1
aI0
ag11
aa(lp52
I4815
aI38
aI0
aI0
ag11
aa(lp53
I4828
aI39
aI1
aI0
ag11
aa(lp54
I5028
aI40
aI0
aI0
ag11
aa(lp55
I5037
aI41
aI1
aI0
ag11
aa(lp56
I5237
aI42
aI0
aI0
ag11
aa(lp57
I5256
aI43
aI0
aI0
ag20
aa(lp58
I5456
aI44
aI0
aI0
ag11
aa(lp59
I5475
aI45
aI1
aI0
ag11
aa(lp60
I5675
aI46
aI0
aI0
ag11
aa(lp61
I5875
aI47
aI0
aI0
ag11
aa(lp62
I6075
aI48
aI0
aI0
ag11
aa.