(lp0
(lp1
I24
aI0
aI1
aI0
acnumpy.core.multiarray
scalar
p2
(cnumpy
dtype
p3
(S'b1'
p4
I0
I1
tp5
Rp6
(I3
S'|'
p7
NNNI-1
I-1
I0
tp8
bS'\x00'
p9
tp10
Rp11
aa(lp12
I224
aI1
aI0
aI0
ag11
aa(lp13
I424
aI2
aI0
aI0
ag11
aa(lp14
I624
aI3
aI0
aI0
ag11
aa(lp15
I824
aI4
aI0
aI0
ag11
aa(lp16
I1024
aI5
aI0
aI0
ag11
aa(lp17
I1224
aI6
aI0
aI0
ag11
aa(lp18
I1424
aI7
aI0
aI0
ag11
aa(lp19
I1624
aI8
aI0
aI0
ag11
aa(lp20
I1824
aI9
aI0
aI0
ag11
aa(lp21
I1854
aI10
aI1
aI0
ag11
aa(lp22
I1976
aI11
aI0
aI0
ag2
(g6
S'\x01'
p23
tp24
Rp25
aa(lp26
I2022
aI12
aI1
aI0
ag11
aa(lp27
I2222
aI13
aI0
aI0
ag11
aa(lp28
I2422
aI14
aI0
aI0
ag11
aa(lp29
I2622
aI15
aI0
aI0
ag11
aa(lp30
I2773
aI16
aI1
aI0
ag11
aa(lp31
I2973
aI17
aI0
aI0
ag11
aa(lp32
I3071
aI18
aI1
aI0
ag11
aa(lp33
I3185
aI19
aI1
aI0
ag11
aa(lp34
I3357
aI20
aI1
aI0
ag11
aa(lp35
I3557
aI21
aI0
aI0
ag11
aa(lp36
I3695
aI22
aI0
aI0
ag25
aa(lp37
I3895
aI23
aI0
aI0
ag11
aa(lp38
I4095
aI24
aI0
aI0
ag11
aa(lp39
I4138
aI25
aI1
aI0
ag11
aa(lp40
I4338
aI26
aI0
aI0
ag11
aa(lp41
I4538
aI27
aI0
aI0
ag11
aa(lp42
I4673
aI28
aI1
aI0
ag11
aa(lp43
I4873
aI29
aI0
aI0
ag11
aa(lp44
I5073
aI30
aI0
aI0
ag11
aa(lp45
I5131
aI31
aI1
aI0
ag11
aa(lp46
I5331
aI32
aI0
aI0
ag11
aa(lp47
I5531
aI33
aI0
aI0
ag11
aa(lp48
I5731
aI34
aI0
aI0
ag11
aa(lp49
I5931
aI35
aI0
aI0
ag11
aa(lp50
I6010
aI36
aI1
aI0
ag11
aa.