(lp0
(lp1
I200
aI0
aI0
aI0
acnumpy.core.multiarray
scalar
p2
(cnumpy
dtype
p3
(S'b1'
p4
I0
I1
tp5
Rp6
(I3
S'|'
p7
NNNI-1
I-1
I0
tp8
bS'\x00'
p9
tp10
Rp11
aa(lp12
I252
aI1
aI0
aI0
ag2
(g6
S'\x01'
p13
tp14
Rp15
aa(lp16
I346
aI2
aI1
aI0
ag11
aa(lp17
I427
aI3
aI1
aI0
ag11
aa(lp18
I627
aI4
aI0
aI0
ag11
aa(lp19
I827
aI5
aI0
aI0
ag11
aa(lp20
I1027
aI6
aI0
aI0
ag11
aa(lp21
I1227
aI7
aI0
aI0
ag11
aa(lp22
I1427
aI8
aI0
aI0
ag11
aa(lp23
I1627
aI9
aI0
aI0
ag11
aa(lp24
I1827
aI10
aI0
aI0
ag11
aa(lp25
I2027
aI11
aI0
aI0
ag11
aa(lp26
I2227
aI12
aI0
aI0
ag11
aa(lp27
I2427
aI13
aI0
aI0
ag11
aa(lp28
I2627
aI14
aI0
aI0
ag11
aa(lp29
I2827
aI15
aI0
aI0
ag11
aa(lp30
I3027
aI16
aI0
aI0
ag11
aa(lp31
I3227
aI17
aI0
aI0
ag11
aa(lp32
I3427
aI18
aI0
aI0
ag11
aa(lp33
I3627
aI19
aI0
aI0
ag11
aa(lp34
I3827
aI20
aI0
aI0
ag11
aa(lp35
I4027
aI21
aI0
aI0
ag11
aa(lp36
I4227
aI22
aI0
aI0
ag11
aa(lp37
I4427
aI23
aI0
aI0
ag11
aa(lp38
I4627
aI24
aI0
aI0
ag11
aa(lp39
I4827
aI25
aI0
aI0
ag11
aa(lp40
I5027
aI26
aI0
aI0
ag11
aa(lp41
I5227
aI27
aI0
aI0
ag11
aa(lp42
I5427
aI28
aI0
aI0
ag11
aa(lp43
I5627
aI29
aI0
aI0
ag11
aa(lp44
I5827
aI30
aI0
aI0
ag11
aa(lp45
I6027
aI31
aI0
aI0
ag11
aa.