(lp0
(lp1
I147
aI0
aI1
aI0
acnumpy.core.multiarray
scalar
p2
(cnumpy
dtype
p3
(S'b1'
p4
I0
I1
tp5
Rp6
(I3
S'|'
p7
NNNI-1
I-1
I0
tp8
bS'\x00'
p9
tp10
Rp11
aa(lp12
I154
aI1
aI1
aI0
ag11
aa(lp13
I354
aI2
aI0
aI0
ag11
aa(lp14
I361
aI3
aI1
aI0
ag11
aa(lp15
I420
aI4
aI1
aI0
ag11
aa(lp16
I426
aI5
aI1
aI0
ag11
aa(lp17
I439
aI6
aI1
aI0
ag11
aa(lp18
I470
aI7
aI0
aI0
ag2
(g6
S'\x01'
p19
tp20
Rp21
aa(lp22
I497
aI8
aI0
aI0
ag21
aa(lp23
I506
aI9
aI1
aI0
ag11
aa(lp24
I527
aI10
aI0
aI0
ag21
aa(lp25
I542
aI11
aI0
aI0
ag21
aa(lp26
I564
aI12
aI1
aI0
ag11
aa(lp27
I569
aI13
aI1
aI0
ag11
aa(lp28
I576
aI14
aI1
aI0
ag11
aa(lp29
I582
aI15
aI1
aI0
ag11
aa(lp30
I588
aI16
aI1
aI0
ag11
aa(lp31
I665
aI17
aI1
aI0
ag11
aa(lp32
I672
aI18
aI1
aI0
ag11
aa(lp33
I679
aI19
aI1
aI0
ag11
aa(lp34
I695
aI20
aI0
aI0
ag21
aa(lp35
I705
aI21
aI1
aI0
ag11
aa(lp36
I716
aI22
aI1
aI0
ag11
aa(lp37
I726
aI23
aI0
aI0
ag21
aa(lp38
I764
aI24
aI1
aI0
ag11
aa(lp39
I770
aI25
aI1
aI0
ag11
aa(lp40
I787
aI26
aI1
aI0
ag11
aa(lp41
I802
aI27
aI0
aI0
ag21
aa(lp42
I810
aI28
aI1
aI0
ag11
aa(lp43
I829
aI29
aI1
aI0
ag11
aa(lp44
I841
aI30
aI0
aI0
ag21
aa(lp45
I850
aI31
aI1
aI0
ag11
aa(lp46
I868
aI32
aI0
aI0
ag21
aa(lp47
I879
aI33
aI1
aI0
ag11
aa(lp48
I894
aI34
aI0
aI0
ag21
aa(lp49
I909
aI35
aI0
aI0
ag21
aa(lp50
I943
aI36
aI0
aI0
ag21
aa(lp51
I970
aI37
aI1
aI0
ag11
aa(lp52
I984
aI38
aI0
aI0
ag21
aa(lp53
I1023
aI39
aI0
aI0
ag21
aa(lp54
I1036
aI40
aI0
aI0
ag21
aa(lp55
I1057
aI41
aI0
aI0
ag21
aa(lp56
I1062
aI42
aI1
aI0
ag11
aa(lp57
I1082
aI43
aI0
aI0
ag21
aa(lp58
I1093
aI44
aI0
aI0
ag21
aa(lp59
I1107
aI45
aI0
aI0
ag21
aa(lp60
I1139
aI46
aI1
aI0
ag11
aa(lp61
I1144
aI47
aI1
aI0
ag11
aa(lp62
I1157
aI48
aI0
aI0
ag21
aa(lp63
I1171
aI49
aI0
aI0
ag21
aa(lp64
I1191
aI50
aI0
aI0
ag21
aa(lp65
I1206
aI51
aI0
aI0
ag21
aa(lp66
I1227
aI52
aI1
aI0
ag11
aa(lp67
I1258
aI53
aI1
aI0
ag11
aa(lp68
I1285
aI54
aI0
aI0
ag21
aa(lp69
I1300
aI55
aI0
aI0
ag21
aa(lp70
I1315
aI56
aI1
aI0
ag11
aa(lp71
I1325
aI57
aI1
aI0
ag11
aa(lp72
I1349
aI58
aI0
aI0
ag21
aa(lp73
I1368
aI59
aI1
aI0
ag11
aa(lp74
I1419
aI60
aI1
aI0
ag11
aa(lp75
I1436
aI61
aI1
aI0
ag11
aa(lp76
I1448
aI62
aI1
aI0
ag11
aa(lp77
I1465
aI63
aI0
aI0
ag21
aa(lp78
I1480
aI64
aI1
aI0
ag11
aa(lp79
I1498
aI65
aI0
aI0
ag21
aa(lp80
I1509
aI66
aI1
aI0
ag11
aa(lp81
I1531
aI67
aI1
aI0
ag11
aa(lp82
I1544
aI68
aI0
aI0
ag21
aa(lp83
I1569
aI69
aI0
aI0
ag21
aa(lp84
I1586
aI70
aI0
aI0
ag21
aa(lp85
I1610
aI71
aI0
aI0
ag21
aa(lp86
I1624
aI72
aI1
aI0
ag11
aa(lp87
I1639
aI73
aI1
aI0
ag11
aa(lp88
I1655
aI74
aI0
aI0
ag21
aa(lp89
I1671
aI75
aI0
aI0
ag21
aa(lp90
I1696
aI76
aI0
aI0
ag21
aa(lp91
I1732
aI77
aI1
aI0
ag11
aa(lp92
I1749
aI78
aI0
aI0
ag21
aa(lp93
I1781
aI79
aI0
aI0
ag21
aa(lp94
I1785
aI80
aI1
aI0
ag11
aa(lp95
I1802
aI81
aI1
aI0
ag11
aa(lp96
I1815
aI82
aI0
aI0
ag21
aa(lp97
I1857
aI83
aI1
aI0
ag11
aa(lp98
I1872
aI84
aI0
aI0
ag21
aa(lp99
I1878
aI85
aI1
aI0
ag11
aa(lp100
I1898
aI86
aI0
aI0
ag21
aa(lp101
I1916
aI87
aI0
aI0
ag21
aa(lp102
I1936
aI88
aI0
aI0
ag21
aa(lp103
I1955
aI89
aI0
aI0
ag21
aa(lp104
I1970
aI90
aI0
aI0
ag21
aa(lp105
I1980
aI91
aI1
aI0
ag11
aa(lp106
I2006
aI92
aI0
aI0
ag21
aa(lp107
I2106
aI93
aI0
aI0
ag21
aa(lp108
I2123
aI94
aI0
aI0
ag21
aa(lp109
I2128
aI95
aI1
aI0
ag11
aa(lp110
I2143
aI96
aI1
aI0
ag11
aa(lp111
I2154
aI97
aI1
aI0
ag11
aa(lp112
I2209
aI98
aI1
aI0
ag11
aa(lp113
I2250
aI99
aI1
aI0
ag11
aa(lp114
I2254
aI100
aI1
aI0
ag11
aa(lp115
I2268
aI100
aI1
aI0
ag11
aa(lp116
I2279
aI101
aI1
aI0
ag11
aa(lp117
I2288
aI102
aI1
aI0
ag11
aa(lp118
I2330
aI103
aI0
aI0
ag21
aa(lp119
I2345
aI104
aI1
aI0
ag11
aa(lp120
I2471
aI105
aI1
aI0
ag11
aa(lp121
I2592
aI106
aI1
aI0
ag11
aa(lp122
I2639
aI107
aI1
aI0
ag11
aa(lp123
I2735
aI108
aI1
aI0
ag11
aa(lp124
I2748
aI109
aI0
aI0
ag21
aa(lp125
I2785
aI110
aI1
aI0
ag11
aa(lp126
I2816
aI111
aI1
aI0
ag11
aa(lp127
I2832
aI112
aI0
aI0
ag21
aa(lp128
I2883
aI113
aI1
aI0
ag11
aa(lp129
I2906
aI114
aI1
aI0
ag11
aa(lp130
I2966
aI115
aI1
aI0
ag11
aa(lp131
I3003
aI116
aI1
aI0
ag11
aa(lp132
I3015
aI117
aI0
aI0
ag21
aa(lp133
I3048
aI118
aI1
aI0
ag11
aa(lp134
I3056
aI119
aI1
aI0
ag11
aa(lp135
I3070
aI120
aI1
aI0
ag11
aa(lp136
I3078
aI121
aI1
aI0
ag11
aa(lp137
I3278
aI122
aI0
aI0
ag11
aa(lp138
I3318
aI123
aI1
aI0
ag11
aa(lp139
I3329
aI124
aI1
aI0
ag11
aa(lp140
I3408
aI125
aI1
aI0
ag11
aa(lp141
I3426
aI126
aI0
aI0
ag21
aa(lp142
I3622
aI127
aI0
aI0
ag21
aa(lp143
I3628
aI128
aI1
aI0
ag11
aa(lp144
I3644
aI129
aI0
aI0
ag21
aa(lp145
I3660
aI130
aI1
aI0
ag11
aa(lp146
I3665
aI131
aI1
aI0
ag11
aa(lp147
I3680
aI132
aI0
aI0
ag21
aa(lp148
I3767
aI133
aI1
aI0
ag11
aa(lp149
I3799
aI134
aI0
aI0
ag21
aa(lp150
I3807
aI135
aI1
aI0
ag11
aa(lp151
I3826
aI136
aI1
aI0
ag11
aa(lp152
I3857
aI137
aI0
aI0
ag21
aa(lp153
I3867
aI138
aI0
aI0
ag21
aa(lp154
I3878
aI139
aI0
aI0
ag21
aa(lp155
I3893
aI140
aI0
aI0
ag21
aa(lp156
I3918
aI141
aI0
aI0
ag21
aa(lp157
I3928
aI142
aI1
aI0
ag11
aa(lp158
I3948
aI143
aI0
aI0
ag21
aa(lp159
I3960
aI144
aI0
aI0
ag21
aa(lp160
I3975
aI145
aI0
aI0
ag21
aa(lp161
I3997
aI146
aI0
aI0
ag21
aa(lp162
I4008
aI147
aI1
aI0
ag11
aa(lp163
I4044
aI148
aI0
aI0
ag21
aa(lp164
I4056
aI149
aI0
aI0
ag21
aa(lp165
I4078
aI150
aI0
aI0
ag21
aa(lp166
I4278
aI151
aI0
aI0
ag11
aa(lp167
I4289
aI152
aI1
aI0
ag11
aa(lp168
I4312
aI153
aI0
aI0
ag21
aa(lp169
I4336
aI154
aI0
aI0
ag21
aa(lp170
I4344
aI155
aI1
aI0
ag11
aa(lp171
I4402
aI156
aI1
aI0
ag11
aa(lp172
I4428
aI157
aI0
aI0
ag21
aa(lp173
I4453
aI158
aI1
aI0
ag11
aa(lp174
I4486
aI159
aI1
aI0
ag11
aa(lp175
I4545
aI160
aI1
aI0
ag11
aa(lp176
I4563
aI161
aI0
aI0
ag21
aa(lp177
I4572
aI162
aI1
aI0
ag11
aa(lp178
I4591
aI163
aI0
aI0
ag21
aa(lp179
I4604
aI164
aI1
aI0
ag11
aa(lp180
I4610
aI165
aI1
aI0
ag11
aa(lp181
I4677
aI166
aI1
aI0
ag11
aa(lp182
I4685
aI167
aI1
aI0
ag11
aa(lp183
I4700
aI168
aI0
aI0
ag21
aa(lp184
I4718
aI169
aI1
aI0
ag11
aa(lp185
I4733
aI170
aI1
aI0
ag11
aa(lp186
I4784
aI171
aI1
aI0
ag11
aa(lp187
I4793
aI172
aI1
aI0
ag11
aa(lp188
I4811
aI173
aI0
aI0
ag21
aa(lp189
I4829
aI174
aI0
aI0
ag21
aa(lp190
I4834
aI175
aI1
aI0
ag11
aa(lp191
I4845
aI176
aI1
aI0
ag11
aa(lp192
I4867
aI177
aI0
aI0
ag21
aa(lp193
I4879
aI178
aI0
aI0
ag21
aa(lp194
I4887
aI179
aI1
aI0
ag11
aa(lp195
I4907
aI180
aI1
aI0
ag11
aa(lp196
I4927
aI181
aI0
aI0
ag21
aa(lp197
I4941
aI182
aI0
aI0
ag21
aa(lp198
I4955
aI183
aI0
aI0
ag21
aa(lp199
I5011
aI184
aI1
aI0
ag11
aa(lp200
I5104
aI185
aI0
aI0
ag21
aa(lp201
I5115
aI186
aI0
aI0
ag21
aa(lp202
I5132
aI187
aI1
aI0
ag11
aa(lp203
I5166
aI188
aI0
aI0
ag21
aa(lp204
I5186
aI189
aI0
aI0
ag21
aa(lp205
I5229
aI190
aI1
aI0
ag11
aa(lp206
I5247
aI191
aI0
aI0
ag21
aa(lp207
I5258
aI192
aI0
aI0
ag21
aa(lp208
I5280
aI193
aI1
aI0
ag11
aa(lp209
I5292
aI194
aI0
aI0
ag21
aa(lp210
I5307
aI195
aI0
aI0
ag21
aa(lp211
I5321
aI196
aI0
aI0
ag21
aa(lp212
I5346
aI197
aI1
aI0
ag11
aa(lp213
I5359
aI198
aI1
aI0
ag11
aa(lp214
I5391
aI199
aI1
aI0
ag11
aa(lp215
I5408
aI200
aI0
aI0
ag21
aa(lp216
I5419
aI201
aI0
aI0
ag21
aa(lp217
I5450
aI202
aI1
aI0
ag11
aa(lp218
I5491
aI203
aI0
aI0
ag21
aa(lp219
I5511
aI204
aI1
aI0
ag11
aa(lp220
I5522
aI205
aI1
aI0
ag11
aa(lp221
I5573
aI206
aI1
aI0
ag11
aa(lp222
I5586
aI207
aI1
aI0
ag11
aa(lp223
I5591
aI208
aI1
aI0
ag11
aa(lp224
I5604
aI209
aI1
aI0
ag11
aa(lp225
I5610
aI210
aI1
aI0
ag11
aa(lp226
I5629
aI211
aI0
aI0
ag21
aa(lp227
I5641
aI212
aI1
aI0
ag11
aa(lp228
I5654
aI213
aI0
aI0
ag21
aa(lp229
I5715
aI214
aI1
aI0
ag11
aa(lp230
I5722
aI215
aI1
aI0
ag11
aa(lp231
I5730
aI216
aI1
aI0
ag11
aa(lp232
I5740
aI217
aI0
aI0
ag21
aa(lp233
I5756
aI218
aI0
aI0
ag21
aa(lp234
I5767
aI219
aI1
aI0
ag11
aa(lp235
I5780
aI220
aI0
aI0
ag21
aa(lp236
I5797
aI221
aI0
aI0
ag21
aa(lp237
I5808
aI222
aI1
aI0
ag11
aa(lp238
I5820
aI223
aI0
aI0
ag21
aa(lp239
I5835
aI224
aI0
aI0
ag21
aa(lp240
I5846
aI225
aI0
aI0
ag21
aa(lp241
I5865
aI226
aI1
aI0
ag11
aa(lp242
I5872
aI227
aI1
aI0
ag11
aa(lp243
I5929
aI228
aI1
aI0
ag11
aa(lp244
I5936
aI229
aI1
aI0
ag11
aa(lp245
I5948
aI230
aI1
aI0
ag11
aa(lp246
I5979
aI231
aI0
aI0
ag21
aa(lp247
I5988
aI232
aI1
aI0
ag11
aa(lp248
I6007
aI233
aI1
aI0
ag11
aa.