(lp0
(lp1
I200
aI0
aI0
aI0
acnumpy.core.multiarray
scalar
p2
(cnumpy
dtype
p3
(S'b1'
p4
I0
I1
tp5
Rp6
(I3
S'|'
p7
NNNI-1
I-1
I0
tp8
bS'\x00'
p9
tp10
Rp11
aa(lp12
I400
aI1
aI0
aI0
ag11
aa(lp13
I600
aI2
aI0
aI0
ag11
aa(lp14
I800
aI3
aI0
aI0
ag11
aa(lp15
I1000
aI4
aI0
aI0
ag11
aa(lp16
I1200
aI5
aI0
aI0
ag11
aa(lp17
I1400
aI6
aI0
aI0
ag11
aa(lp18
I1600
aI7
aI0
aI0
ag11
aa(lp19
I1800
aI8
aI0
aI0
ag11
aa(lp20
I1942
aI9
aI1
aI0
ag11
aa(lp21
I2142
aI10
aI0
aI0
ag11
aa(lp22
I2157
aI11
aI1
aI0
ag11
aa(lp23
I2357
aI12
aI0
aI0
ag11
aa(lp24
I2471
aI13
aI1
aI0
ag11
aa(lp25
I2671
aI14
aI0
aI0
ag11
aa(lp26
I2871
aI15
aI0
aI0
ag11
aa(lp27
I3071
aI16
aI0
aI0
ag11
aa(lp28
I3271
aI17
aI0
aI0
ag11
aa(lp29
I3471
aI18
aI0
aI0
ag11
aa(lp30
I3671
aI19
aI0
aI0
ag11
aa(lp31
I3871
aI20
aI0
aI0
ag11
aa(lp32
I3894
aI21
aI1
aI0
ag11
aa(lp33
I4005
aI22
aI1
aI0
ag11
aa(lp34
I4148
aI23
aI1
aI0
ag11
aa(lp35
I4348
aI24
aI0
aI0
ag11
aa(lp36
I4548
aI25
aI0
aI0
ag11
aa(lp37
I4748
aI26
aI0
aI0
ag11
aa(lp38
I4792
aI27
aI1
aI0
ag11
aa(lp39
I4833
aI28
aI1
aI0
ag11
aa(lp40
I5033
aI29
aI0
aI0
ag11
aa(lp41
I5233
aI30
aI0
aI0
ag11
aa(lp42
I5433
aI31
aI0
aI0
ag11
aa(lp43
I5633
aI32
aI0
aI0
ag11
aa(lp44
I5833
aI33
aI0
aI0
ag11
aa(lp45
I6033
aI34
aI0
aI0
ag11
aa.