(lp0
(lp1
I200
aI0
aI0
aI0
acnumpy.core.multiarray
scalar
p2
(cnumpy
dtype
p3
(S'b1'
p4
I0
I1
tp5
Rp6
(I3
S'|'
p7
NNNI-1
I-1
I0
tp8
bS'\x00'
p9
tp10
Rp11
aa(lp12
I213
aI1
aI1
aI0
ag11
aa(lp13
I413
aI2
aI0
aI0
ag11
aa(lp14
I428
aI3
aI1
aI0
ag11
aa(lp15
I628
aI4
aI0
aI0
ag11
aa(lp16
I634
aI5
aI1
aI0
ag11
aa(lp17
I645
aI6
aI0
aI0
ag2
(g6
S'\x01'
p18
tp19
Rp20
aa(lp21
I651
aI7
aI1
aI0
ag11
aa(lp22
I676
aI8
aI1
aI0
ag11
aa(lp23
I699
aI9
aI0
aI0
ag20
aa(lp24
I712
aI10
aI0
aI0
ag20
aa(lp25
I727
aI11
aI0
aI0
ag20
aa(lp26
I799
aI12
aI0
aI0
ag20
aa(lp27
I837
aI13
aI0
aI0
ag20
aa(lp28
I1037
aI14
aI0
aI0
ag11
aa(lp29
I1048
aI15
aI0
aI0
ag20
aa(lp30
I1139
aI16
aI0
aI0
ag20
aa(lp31
I1151
aI17
aI1
aI0
ag11
aa(lp32
I1164
aI18
aI0
aI0
ag20
aa(lp33
I1211
aI19
aI0
aI0
ag20
aa(lp34
I1266
aI20
aI1
aI0
ag11
aa(lp35
I1276
aI21
aI0
aI0
ag20
aa(lp36
I1289
aI22
aI0
aI0
ag20
aa(lp37
I1317
aI23
aI0
aI0
ag20
aa(lp38
I1331
aI24
aI0
aI0
ag20
aa(lp39
I1344
aI25
aI0
aI0
ag20
aa(lp40
I1359
aI26
aI0
aI0
ag20
aa(lp41
I1373
aI27
aI0
aI0
ag20
aa(lp42
I1384
aI28
aI1
aI0
ag11
aa(lp43
I1390
aI29
aI1
aI0
ag11
aa(lp44
I1405
aI30
aI0
aI0
ag20
aa(lp45
I1444
aI31
aI0
aI0
ag20
aa(lp46
I1456
aI32
aI0
aI0
ag20
aa(lp47
I1469
aI33
aI0
aI0
ag20
aa(lp48
I1482
aI34
aI0
aI0
ag20
aa(lp49
I1492
aI35
aI1
aI0
ag11
aa(lp50
I1525
aI36
aI0
aI0
ag20
aa(lp51
I1721
aI37
aI1
aI0
ag11
aa(lp52
I1731
aI38
aI0
aI0
ag20
aa(lp53
I1738
aI39
aI1
aI0
ag11
aa(lp54
I1748
aI40
aI1
aI0
ag11
aa(lp55
I1778
aI41
aI0
aI0
ag20
aa(lp56
I1790
aI42
aI0
aI0
ag20
aa(lp57
I1809
aI43
aI0
aI0
ag20
aa(lp58
I1837
aI44
aI0
aI0
ag20
aa(lp59
I1844
aI45
aI1
aI0
ag11
aa(lp60
I1880
aI46
aI0
aI0
ag20
aa(lp61
I1900
aI47
aI0
aI0
ag20
aa(lp62
I1918
aI48
aI1
aI0
ag11
aa(lp63
I1929
aI49
aI0
aI0
ag20
aa(lp64
I1947
aI50
aI0
aI0
ag20
aa(lp65
I1964
aI51
aI0
aI0
ag20
aa(lp66
I1994
aI52
aI0
aI0
ag20
aa(lp67
I2008
aI53
aI0
aI0
ag20
aa(lp68
I2021
aI54
aI0
aI0
ag20
aa(lp69
I2038
aI55
aI0
aI0
ag20
aa(lp70
I2059
aI56
aI0
aI0
ag20
aa(lp71
I2069
aI57
aI1
aI0
ag11
aa(lp72
I2093
aI58
aI0
aI0
ag20
aa(lp73
I2108
aI59
aI0
aI0
ag20
aa(lp74
I2120
aI60
aI0
aI0
ag20
aa(lp75
I2133
aI61
aI0
aI0
ag20
aa(lp76
I2150
aI62
aI0
aI0
ag20
aa(lp77
I2162
aI63
aI0
aI0
ag20
aa(lp78
I2182
aI64
aI0
aI0
ag20
aa(lp79
I2203
aI65
aI0
aI0
ag20
aa(lp80
I2219
aI66
aI0
aI0
ag20
aa(lp81
I2284
aI67
aI0
aI0
ag20
aa(lp82
I2308
aI68
aI0
aI0
ag20
aa(lp83
I2319
aI69
aI1
aI0
ag11
aa(lp84
I2330
aI70
aI1
aI0
ag11
aa(lp85
I2341
aI71
aI0
aI0
ag20
aa(lp86
I2352
aI72
aI0
aI0
ag20
aa(lp87
I2368
aI73
aI0
aI0
ag20
aa(lp88
I2383
aI74
aI0
aI0
ag20
aa(lp89
I2410
aI75
aI0
aI0
ag20
aa(lp90
I2416
aI76
aI1
aI0
ag11
aa(lp91
I2435
aI77
aI0
aI0
ag20
aa(lp92
I2450
aI78
aI0
aI0
ag20
aa(lp93
I2470
aI79
aI0
aI0
ag20
aa(lp94
I2481
aI80
aI1
aI0
ag11
aa(lp95
I2493
aI81
aI0
aI0
ag20
aa(lp96
I2501
aI82
aI1
aI0
ag11
aa(lp97
I2523
aI83
aI1
aI0
ag11
aa(lp98
I2546
aI84
aI0
aI0
ag20
aa(lp99
I2558
aI85
aI0
aI0
ag20
aa(lp100
I2571
aI86
aI0
aI0
ag20
aa(lp101
I2579
aI87
aI1
aI0
ag11
aa(lp102
I2584
aI88
aI1
aI0
ag11
aa(lp103
I2598
aI89
aI0
aI0
ag20
aa(lp104
I2610
aI90
aI1
aI0
ag11
aa(lp105
I2657
aI91
aI1
aI0
ag11
aa(lp106
I2667
aI92
aI0
aI0
ag20
aa(lp107
I2674
aI93
aI1
aI0
ag11
aa(lp108
I2695
aI94
aI0
aI0
ag20
aa(lp109
I2715
aI95
aI0
aI0
ag20
aa(lp110
I2726
aI96
aI0
aI0
ag20
aa(lp111
I2744
aI97
aI0
aI0
ag20
aa(lp112
I2758
aI98
aI1
aI0
ag11
aa(lp113
I2766
aI99
aI1
aI0
ag11
aa(lp114
I2786
aI100
aI1
aI0
ag11
aa(lp115
I2810
aI100
aI1
aI0
ag11
aa(lp116
I2833
aI101
aI1
aI0
ag11
aa(lp117
I2845
aI102
aI1
aI0
ag11
aa(lp118
I2859
aI103
aI0
aI0
ag20
aa(lp119
I2886
aI104
aI0
aI0
ag20
aa(lp120
I2898
aI105
aI0
aI0
ag20
aa(lp121
I2909
aI106
aI0
aI0
ag20
aa(lp122
I2920
aI107
aI0
aI0
ag20
aa(lp123
I2973
aI108
aI1
aI0
ag11
aa(lp124
I2990
aI109
aI0
aI0
ag20
aa(lp125
I2999
aI110
aI0
aI0
ag20
aa(lp126
I3010
aI111
aI0
aI0
ag20
aa(lp127
I3039
aI112
aI1
aI0
ag11
aa(lp128
I3237
aI113
aI1
aI0
ag11
aa(lp129
I3250
aI114
aI0
aI0
ag20
aa(lp130
I3296
aI115
aI0
aI0
ag20
aa(lp131
I3343
aI116
aI0
aI0
ag20
aa(lp132
I3356
aI117
aI0
aI0
ag20
aa(lp133
I3380
aI118
aI0
aI0
ag20
aa(lp134
I3404
aI119
aI0
aI0
ag20
aa(lp135
I3418
aI120
aI0
aI0
ag20
aa(lp136
I3428
aI121
aI1
aI0
ag11
aa(lp137
I3446
aI122
aI0
aI0
ag20
aa(lp138
I3526
aI123
aI1
aI0
ag11
aa(lp139
I3540
aI124
aI1
aI0
ag11
aa(lp140
I3739
aI125
aI1
aI0
ag11
aa(lp141
I3766
aI126
aI1
aI0
ag11
aa(lp142
I3832
aI127
aI0
aI0
ag20
aa(lp143
I3910
aI128
aI1
aI0
ag11
aa(lp144
I3932
aI129
aI1
aI0
ag11
aa(lp145
I3939
aI130
aI1
aI0
ag11
aa(lp146
I3946
aI131
aI1
aI0
ag11
aa(lp147
I3982
aI132
aI0
aI0
ag20
aa(lp148
I4012
aI133
aI1
aI0
ag11
aa(lp149
I4056
aI134
aI1
aI0
ag11
aa(lp150
I4070
aI135
aI0
aI0
ag20
aa(lp151
I4089
aI136
aI0
aI0
ag20
aa(lp152
I4106
aI137
aI0
aI0
ag20
aa(lp153
I4138
aI138
aI0
aI0
ag20
aa(lp154
I4151
aI139
aI0
aI0
ag20
aa(lp155
I4164
aI140
aI1
aI0
ag11
aa(lp156
I4188
aI141
aI0
aI0
ag20
aa(lp157
I4202
aI142
aI1
aI0
ag11
aa(lp158
I4213
aI143
aI0
aI0
ag20
aa(lp159
I4225
aI144
aI1
aI0
ag11
aa(lp160
I4239
aI145
aI0
aI0
ag20
aa(lp161
I4253
aI146
aI1
aI0
ag11
aa(lp162
I4268
aI147
aI0
aI0
ag20
aa(lp163
I4287
aI148
aI0
aI0
ag20
aa(lp164
I4309
aI149
aI0
aI0
ag20
aa(lp165
I4322
aI150
aI0
aI0
ag20
aa(lp166
I4340
aI151
aI0
aI0
ag20
aa(lp167
I4352
aI152
aI0
aI0
ag20
aa(lp168
I4364
aI153
aI0
aI0
ag20
aa(lp169
I4376
aI154
aI0
aI0
ag20
aa(lp170
I4398
aI155
aI0
aI0
ag20
aa(lp171
I4409
aI156
aI0
aI0
ag20
aa(lp172
I4421
aI157
aI1
aI0
ag11
aa(lp173
I4432
aI158
aI0
aI0
ag20
aa(lp174
I4446
aI159
aI0
aI0
ag20
aa(lp175
I4454
aI160
aI1
aI0
ag11
aa(lp176
I4473
aI161
aI0
aI0
ag20
aa(lp177
I4484
aI162
aI0
aI0
ag20
aa(lp178
I4502
aI163
aI0
aI0
ag20
aa(lp179
I4521
aI164
aI0
aI0
ag20
aa(lp180
I4550
aI165
aI0
aI0
ag20
aa(lp181
I4564
aI166
aI0
aI0
ag20
aa(lp182
I4573
aI167
aI1
aI0
ag11
aa(lp183
I4602
aI168
aI0
aI0
ag20
aa(lp184
I4611
aI169
aI1
aI0
ag11
aa(lp185
I4714
aI170
aI1
aI0
ag11
aa(lp186
I4729
aI171
aI1
aI0
ag11
aa(lp187
I4738
aI172
aI1
aI0
ag11
aa(lp188
I4756
aI173
aI1
aI0
ag11
aa(lp189
I4782
aI174
aI0
aI0
ag20
aa(lp190
I4809
aI175
aI1
aI0
ag11
aa(lp191
I4832
aI176
aI0
aI0
ag20
aa(lp192
I4843
aI177
aI0
aI0
ag20
aa(lp193
I4872
aI178
aI0
aI0
ag20
aa(lp194
I4889
aI179
aI0
aI0
ag20
aa(lp195
I4909
aI180
aI0
aI0
ag20
aa(lp196
I4920
aI181
aI0
aI0
ag20
aa(lp197
I4943
aI182
aI1
aI0
ag11
aa(lp198
I4965
aI183
aI1
aI0
ag11
aa(lp199
I4976
aI184
aI0
aI0
ag20
aa(lp200
I4993
aI185
aI0
aI0
ag20
aa(lp201
I5052
aI186
aI0
aI0
ag20
aa(lp202
I5071
aI187
aI0
aI0
ag20
aa(lp203
I5119
aI188
aI1
aI0
ag11
aa(lp204
I5129
aI189
aI0
aI0
ag20
aa(lp205
I5168
aI190
aI0
aI0
ag20
aa(lp206
I5181
aI191
aI0
aI0
ag20
aa(lp207
I5191
aI192
aI0
aI0
ag20
aa(lp208
I5219
aI193
aI1
aI0
ag11
aa(lp209
I5287
aI194
aI0
aI0
ag20
aa(lp210
I5300
aI195
aI0
aI0
ag20
aa(lp211
I5323
aI196
aI1
aI0
ag11
aa(lp212
I5354
aI197
aI1
aI0
ag11
aa(lp213
I5395
aI198
aI1
aI0
ag11
aa(lp214
I5401
aI199
aI1
aI0
ag11
aa(lp215
I5419
aI200
aI1
aI0
ag11
aa(lp216
I5455
aI201
aI1
aI0
ag11
aa(lp217
I5460
aI202
aI1
aI0
ag11
aa(lp218
I5478
aI203
aI1
aI0
ag11
aa(lp219
I5493
aI204
aI0
aI0
ag20
aa(lp220
I5499
aI205
aI1
aI0
ag11
aa(lp221
I5512
aI206
aI0
aI0
ag20
aa(lp222
I5553
aI207
aI1
aI0
ag11
aa(lp223
I5567
aI208
aI1
aI0
ag11
aa(lp224
I5622
aI209
aI1
aI0
ag11
aa(lp225
I5814
aI210
aI1
aI0
ag11
aa(lp226
I5820
aI211
aI1
aI0
ag11
aa(lp227
I5838
aI212
aI1
aI0
ag11
aa(lp228
I5854
aI213
aI1
aI0
ag11
aa(lp229
I5865
aI214
aI0
aI0
ag20
aa(lp230
I5879
aI215
aI0
aI0
ag20
aa(lp231
I5943
aI216
aI0
aI0
ag20
aa(lp232
I5948
aI217
aI1
aI0
ag11
aa(lp233
I5969
aI218
aI1
aI0
ag11
aa(lp234
I5981
aI219
aI0
aI0
ag20
aa(lp235
I6003
aI220
aI1
aI0
ag11
aa.