(lp0
(lp1
I200
aI0
aI0
aI0
acnumpy.core.multiarray
scalar
p2
(cnumpy
dtype
p3
(S'b1'
p4
I0
I1
tp5
Rp6
(I3
S'|'
p7
NNNI-1
I-1
I0
tp8
bS'\x00'
p9
tp10
Rp11
aa(lp12
I215
aI1
aI1
aI0
ag11
aa(lp13
I231
aI2
aI1
aI0
ag11
aa(lp14
I291
aI3
aI1
aI0
ag11
aa(lp15
I331
aI4
aI1
aI0
ag11
aa(lp16
I336
aI5
aI1
aI0
ag11
aa(lp17
I536
aI6
aI0
aI0
ag11
aa(lp18
I550
aI7
aI1
aI0
ag11
aa(lp19
I586
aI8
aI1
aI0
ag11
aa(lp20
I650
aI9
aI1
aI0
ag11
aa(lp21
I673
aI10
aI1
aI0
ag11
aa(lp22
I704
aI11
aI1
aI0
ag11
aa(lp23
I722
aI12
aI1
aI0
ag11
aa(lp24
I744
aI13
aI1
aI0
ag11
aa(lp25
I750
aI14
aI1
aI0
ag11
aa(lp26
I755
aI15
aI1
aI0
ag11
aa(lp27
I764
aI16
aI1
aI0
ag11
aa(lp28
I771
aI17
aI1
aI0
ag11
aa(lp29
I823
aI18
aI0
aI0
ag2
(g6
S'\x01'
p30
tp31
Rp32
aa(lp33
I837
aI19
aI1
aI0
ag11
aa(lp34
I1037
aI20
aI0
aI0
ag11
aa(lp35
I1089
aI21
aI0
aI0
ag32
aa(lp36
I1110
aI22
aI0
aI0
ag32
aa(lp37
I1121
aI23
aI1
aI0
ag11
aa(lp38
I1238
aI24
aI0
aI0
ag32
aa(lp39
I1264
aI25
aI1
aI0
ag11
aa(lp40
I1280
aI26
aI1
aI0
ag11
aa(lp41
I1300
aI27
aI0
aI0
ag32
aa(lp42
I1310
aI28
aI1
aI0
ag11
aa(lp43
I1333
aI29
aI0
aI0
ag32
aa(lp44
I1375
aI30
aI0
aI0
ag32
aa(lp45
I1389
aI31
aI1
aI0
ag11
aa(lp46
I1525
aI32
aI1
aI0
ag11
aa(lp47
I1567
aI33
aI1
aI0
ag11
aa(lp48
I1748
aI34
aI0
aI0
ag32
aa(lp49
I1808
aI35
aI1
aI0
ag11
aa(lp50
I1840
aI36
aI1
aI0
ag11
aa(lp51
I1877
aI37
aI1
aI0
ag11
aa(lp52
I1913
aI38
aI1
aI0
ag11
aa(lp53
I1942
aI39
aI0
aI0
ag32
aa(lp54
I2069
aI40
aI0
aI0
ag32
aa(lp55
I2227
aI41
aI1
aI0
ag11
aa(lp56
I2241
aI42
aI1
aI0
ag11
aa(lp57
I2441
aI43
aI0
aI0
ag11
aa(lp58
I2483
aI44
aI1
aI0
ag11
aa(lp59
I2546
aI45
aI1
aI0
ag11
aa(lp60
I2598
aI46
aI1
aI0
ag11
aa(lp61
I2619
aI47
aI1
aI0
ag11
aa(lp62
I2637
aI48
aI1
aI0
ag11
aa(lp63
I2670
aI49
aI0
aI0
ag32
aa(lp64
I2704
aI50
aI0
aI0
ag32
aa(lp65
I2719
aI51
aI1
aI0
ag11
aa(lp66
I2754
aI52
aI1
aI0
ag11
aa(lp67
I2789
aI53
aI1
aI0
ag11
aa(lp68
I2812
aI54
aI1
aI0
ag11
aa(lp69
I2822
aI55
aI1
aI0
ag11
aa(lp70
I2837
aI56
aI1
aI0
ag11
aa(lp71
I2898
aI57
aI1
aI0
ag11
aa(lp72
I2956
aI58
aI0
aI0
ag32
aa(lp73
I2997
aI59
aI1
aI0
ag11
aa(lp74
I3012
aI60
aI1
aI0
ag11
aa(lp75
I3026
aI61
aI1
aI0
ag11
aa(lp76
I3067
aI62
aI0
aI0
ag32
aa(lp77
I3089
aI63
aI1
aI0
ag11
aa(lp78
I3097
aI64
aI1
aI0
ag11
aa(lp79
I3103
aI65
aI1
aI0
ag11
aa(lp80
I3117
aI66
aI1
aI0
ag11
aa(lp81
I3133
aI67
aI1
aI0
ag11
aa(lp82
I3146
aI68
aI1
aI0
ag11
aa(lp83
I3168
aI69
aI1
aI0
ag11
aa(lp84
I3194
aI70
aI1
aI0
ag11
aa(lp85
I3257
aI71
aI0
aI0
ag32
aa(lp86
I3284
aI72
aI0
aI0
ag32
aa(lp87
I3295
aI73
aI1
aI0
ag11
aa(lp88
I3321
aI74
aI1
aI0
ag11
aa(lp89
I3355
aI75
aI0
aI0
ag32
aa(lp90
I3370
aI76
aI1
aI0
ag11
aa(lp91
I3386
aI77
aI1
aI0
ag11
aa(lp92
I3412
aI78
aI1
aI0
ag11
aa(lp93
I3431
aI79
aI1
aI0
ag11
aa(lp94
I3441
aI80
aI1
aI0
ag11
aa(lp95
I3470
aI81
aI1
aI0
ag11
aa(lp96
I3489
aI82
aI1
aI0
ag11
aa(lp97
I3524
aI83
aI1
aI0
ag11
aa(lp98
I3547
aI84
aI1
aI0
ag11
aa(lp99
I3581
aI85
aI1
aI0
ag11
aa(lp100
I3588
aI86
aI1
aI0
ag11
aa(lp101
I3595
aI87
aI1
aI0
ag11
aa(lp102
I3653
aI88
aI1
aI0
ag11
aa(lp103
I3673
aI89
aI1
aI0
ag11
aa(lp104
I3688
aI90
aI1
aI0
ag11
aa(lp105
I3888
aI91
aI0
aI0
ag11
aa(lp106
I3899
aI92
aI1
aI0
ag11
aa(lp107
I3918
aI93
aI0
aI0
ag32
aa(lp108
I3949
aI94
aI1
aI0
ag11
aa(lp109
I3968
aI95
aI1
aI0
ag11
aa(lp110
I4030
aI96
aI0
aI0
ag32
aa(lp111
I4061
aI97
aI1
aI0
ag11
aa(lp112
I4077
aI98
aI1
aI0
ag11
aa(lp113
I4093
aI99
aI1
aI0
ag11
aa(lp114
I4293
aI100
aI0
aI0
ag11
aa(lp115
I4312
aI101
aI0
aI0
ag32
aa(lp116
I4317
aI102
aI1
aI0
ag11
aa(lp117
I4364
aI103
aI0
aI0
ag32
aa(lp118
I4369
aI104
aI1
aI0
ag11
aa(lp119
I4379
aI105
aI1
aI0
ag11
aa(lp120
I4492
aI106
aI1
aI0
ag11
aa(lp121
I4513
aI107
aI1
aI0
ag11
aa(lp122
I4539
aI108
aI0
aI0
ag32
aa(lp123
I4567
aI109
aI1
aI0
ag11
aa(lp124
I4574
aI110
aI1
aI0
ag11
aa(lp125
I4605
aI111
aI0
aI0
ag32
aa(lp126
I4614
aI112
aI1
aI0
ag11
aa(lp127
I4643
aI113
aI1
aI0
ag11
aa(lp128
I4657
aI114
aI1
aI0
ag11
aa(lp129
I4683
aI115
aI1
aI0
ag11
aa(lp130
I4697
aI116
aI1
aI0
ag11
aa(lp131
I4708
aI117
aI1
aI0
ag11
aa(lp132
I4743
aI118
aI1
aI0
ag11
aa(lp133
I4765
aI119
aI0
aI0
ag32
aa(lp134
I4950
aI120
aI1
aI0
ag11
aa(lp135
I4971
aI121
aI1
aI0
ag11
aa(lp136
I5054
aI122
aI0
aI0
ag32
aa(lp137
I5096
aI123
aI1
aI0
ag11
aa(lp138
I5138
aI124
aI1
aI0
ag11
aa(lp139
I5197
aI125
aI1
aI0
ag11
aa(lp140
I5219
aI126
aI0
aI0
ag32
aa(lp141
I5241
aI127
aI0
aI0
ag32
aa(lp142
I5253
aI128
aI1
aI0
ag11
aa(lp143
I5368
aI129
aI0
aI0
ag32
aa(lp144
I5374
aI130
aI1
aI0
ag11
aa(lp145
I5394
aI131
aI0
aI0
ag32
aa(lp146
I5413
aI132
aI1
aI0
ag11
aa(lp147
I5420
aI133
aI1
aI0
ag11
aa(lp148
I5437
aI134
aI1
aI0
ag11
aa(lp149
I5455
aI135
aI1
aI0
ag11
aa(lp150
I5483
aI136
aI1
aI0
ag11
aa(lp151
I5507
aI137
aI1
aI0
ag11
aa(lp152
I5523
aI138
aI1
aI0
ag11
aa(lp153
I5533
aI139
aI1
aI0
ag11
aa(lp154
I5582
aI140
aI1
aI0
ag11
aa(lp155
I5654
aI141
aI1
aI0
ag11
aa(lp156
I5676
aI142
aI1
aI0
ag11
aa(lp157
I5692
aI143
aI1
aI0
ag11
aa(lp158
I5735
aI144
aI1
aI0
ag11
aa(lp159
I5774
aI145
aI1
aI0
ag11
aa(lp160
I5882
aI146
aI0
aI0
ag32
aa(lp161
I5895
aI147
aI1
aI0
ag11
aa(lp162
I5902
aI148
aI1
aI0
ag11
aa(lp163
I5909
aI149
aI1
aI0
ag11
aa(lp164
I5916
aI150
aI1
aI0
ag11
aa(lp165
I5939
aI151
aI1
aI0
ag11
aa(lp166
I5973
aI152
aI1
aI0
ag11
aa(lp167
I6012
aI153
aI1
aI0
ag11
aa.