(lp0
(lp1
I86
aI0
aI0
aI0
acnumpy.core.multiarray
scalar
p2
(cnumpy
dtype
p3
(S'b1'
p4
I0
I1
tp5
Rp6
(I3
S'|'
p7
NNNI-1
I-1
I0
tp8
bS'\x01'
p9
tp10
Rp11
aa(lp12
I172
aI1
aI1
aI0
ag2
(g6
S'\x00'
p13
tp14
Rp15
aa(lp16
I372
aI2
aI0
aI0
ag15
aa(lp17
I572
aI3
aI0
aI0
ag15
aa(lp18
I772
aI4
aI0
aI0
ag15
aa(lp19
I856
aI5
aI0
aI0
ag11
aa(lp20
I1056
aI6
aI0
aI0
ag15
aa(lp21
I1256
aI7
aI0
aI0
ag15
aa(lp22
I1298
aI8
aI0
aI0
ag11
aa(lp23
I1498
aI9
aI0
aI0
ag15
aa(lp24
I1698
aI10
aI0
aI0
ag15
aa(lp25
I1898
aI11
aI0
aI0
ag15
aa(lp26
I1945
aI12
aI1
aI0
ag15
aa(lp27
I2000
aI13
aI1
aI0
ag15
aa(lp28
I2200
aI14
aI0
aI0
ag15
aa(lp29
I2400
aI15
aI0
aI0
ag15
aa(lp30
I2600
aI16
aI0
aI0
ag15
aa(lp31
I2800
aI17
aI0
aI0
ag15
aa(lp32
I2841
aI18
aI1
aI0
ag15
aa(lp33
I3041
aI19
aI0
aI0
ag15
aa(lp34
I3121
aI20
aI1
aI0
ag15
aa(lp35
I3182
aI21
aI1
aI0
ag15
aa(lp36
I3382
aI22
aI0
aI0
ag15
aa(lp37
I3479
aI23
aI0
aI0
ag11
aa(lp38
I3679
aI24
aI0
aI0
ag15
aa(lp39
I3879
aI25
aI0
aI0
ag15
aa(lp40
I4079
aI26
aI0
aI0
ag15
aa(lp41
I4160
aI27
aI1
aI0
ag15
aa(lp42
I4360
aI28
aI0
aI0
ag15
aa(lp43
I4560
aI29
aI0
aI0
ag15
aa(lp44
I4710
aI30
aI1
aI0
ag15
aa(lp45
I4910
aI31
aI0
aI0
ag15
aa(lp46
I5110
aI32
aI0
aI0
ag15
aa(lp47
I5310
aI33
aI0
aI0
ag15
aa(lp48
I5431
aI34
aI1
aI0
ag15
aa(lp49
I5631
aI35
aI0
aI0
ag15
aa(lp50
I5736
aI36
aI0
aI0
ag11
aa(lp51
I5936
aI37
aI0
aI0
ag15
aa(lp52
I6136
aI38
aI0
aI0
ag15
aa.