(lp0
(lp1
I159
aI0
aI1
aI0
acnumpy.core.multiarray
scalar
p2
(cnumpy
dtype
p3
(S'b1'
p4
I0
I1
tp5
Rp6
(I3
S'|'
p7
NNNI-1
I-1
I0
tp8
bS'\x00'
p9
tp10
Rp11
aa(lp12
I165
aI1
aI1
aI0
ag11
aa(lp13
I175
aI2
aI0
aI0
ag2
(g6
S'\x01'
p14
tp15
Rp16
aa(lp17
I247
aI3
aI1
aI0
ag11
aa(lp18
I296
aI4
aI1
aI0
ag11
aa(lp19
I301
aI5
aI1
aI0
ag11
aa(lp20
I311
aI6
aI0
aI0
ag16
aa(lp21
I321
aI7
aI0
aI0
ag16
aa(lp22
I331
aI8
aI0
aI0
ag16
aa(lp23
I341
aI9
aI0
aI0
ag16
aa(lp24
I347
aI10
aI1
aI0
ag11
aa(lp25
I356
aI11
aI0
aI0
ag16
aa(lp26
I383
aI12
aI1
aI0
ag11
aa(lp27
I418
aI13
aI0
aI0
ag16
aa(lp28
I424
aI14
aI1
aI0
ag11
aa(lp29
I430
aI15
aI1
aI0
ag11
aa(lp30
I436
aI16
aI1
aI0
ag11
aa(lp31
I447
aI17
aI0
aI0
ag16
aa(lp32
I461
aI18
aI0
aI0
ag16
aa(lp33
I472
aI19
aI1
aI0
ag11
aa(lp34
I485
aI20
aI1
aI0
ag11
aa(lp35
I497
aI21
aI0
aI0
ag16
aa(lp36
I507
aI22
aI0
aI0
ag16
aa(lp37
I525
aI23
aI1
aI0
ag11
aa(lp38
I535
aI24
aI0
aI0
ag16
aa(lp39
I545
aI25
aI0
aI0
ag16
aa(lp40
I555
aI26
aI1
aI0
ag11
aa(lp41
I562
aI27
aI1
aI0
ag11
aa(lp42
I573
aI28
aI0
aI0
ag16
aa(lp43
I599
aI29
aI0
aI0
ag16
aa(lp44
I604
aI30
aI1
aI0
ag11
aa(lp45
I614
aI31
aI0
aI0
ag16
aa(lp46
I623
aI32
aI0
aI0
ag16
aa(lp47
I634
aI33
aI0
aI0
ag16
aa(lp48
I680
aI34
aI1
aI0
ag11
aa(lp49
I694
aI35
aI0
aI0
ag16
aa(lp50
I704
aI36
aI0
aI0
ag16
aa(lp51
I728
aI37
aI1
aI0
ag11
aa(lp52
I774
aI38
aI1
aI0
ag11
aa(lp53
I781
aI39
aI1
aI0
ag11
aa(lp54
I821
aI40
aI1
aI0
ag11
aa(lp55
I835
aI41
aI0
aI0
ag16
aa(lp56
I857
aI42
aI1
aI0
ag11
aa(lp57
I862
aI43
aI1
aI0
ag11
aa(lp58
I876
aI44
aI1
aI0
ag11
aa(lp59
I915
aI45
aI1
aI0
ag11
aa(lp60
I921
aI46
aI1
aI0
ag11
aa(lp61
I932
aI47
aI0
aI0
ag16
aa(lp62
I943
aI48
aI0
aI0
ag16
aa(lp63
I952
aI49
aI1
aI0
ag11
aa(lp64
I962
aI50
aI0
aI0
ag16
aa(lp65
I972
aI51
aI0
aI0
ag16
aa(lp66
I983
aI52
aI0
aI0
ag16
aa(lp67
I995
aI53
aI1
aI0
ag11
aa(lp68
I1003
aI54
aI1
aI0
ag11
aa(lp69
I1016
aI55
aI0
aI0
ag16
aa(lp70
I1027
aI56
aI0
aI0
ag16
aa(lp71
I1035
aI57
aI1
aI0
ag11
aa(lp72
I1045
aI58
aI0
aI0
ag16
aa(lp73
I1057
aI59
aI1
aI0
ag11
aa(lp74
I1068
aI60
aI1
aI0
ag11
aa(lp75
I1076
aI61
aI1
aI0
ag11
aa(lp76
I1092
aI62
aI0
aI0
ag16
aa(lp77
I1109
aI63
aI1
aI0
ag11
aa(lp78
I1124
aI64
aI0
aI0
ag16
aa(lp79
I1162
aI65
aI1
aI0
ag11
aa(lp80
I1175
aI66
aI0
aI0
ag16
aa(lp81
I1187
aI67
aI0
aI0
ag16
aa(lp82
I1198
aI68
aI0
aI0
ag16
aa(lp83
I1218
aI69
aI1
aI0
ag11
aa(lp84
I1224
aI70
aI1
aI0
ag11
aa(lp85
I1290
aI71
aI1
aI0
ag11
aa(lp86
I1317
aI72
aI1
aI0
ag11
aa(lp87
I1328
aI73
aI1
aI0
ag11
aa(lp88
I1344
aI74
aI0
aI0
ag16
aa(lp89
I1364
aI75
aI0
aI0
ag16
aa(lp90
I1378
aI76
aI0
aI0
ag16
aa(lp91
I1414
aI77
aI1
aI0
ag11
aa(lp92
I1426
aI78
aI0
aI0
ag16
aa(lp93
I1440
aI79
aI1
aI0
ag11
aa(lp94
I1452
aI80
aI0
aI0
ag16
aa(lp95
I1480
aI81
aI1
aI0
ag11
aa(lp96
I1492
aI82
aI0
aI0
ag16
aa(lp97
I1504
aI83
aI0
aI0
ag16
aa(lp98
I1514
aI84
aI1
aI0
ag11
aa(lp99
I1526
aI85
aI0
aI0
ag16
aa(lp100
I1537
aI86
aI0
aI0
ag16
aa(lp101
I1550
aI87
aI0
aI0
ag16
aa(lp102
I1566
aI88
aI0
aI0
ag16
aa(lp103
I1583
aI89
aI0
aI0
ag16
aa(lp104
I1596
aI90
aI0
aI0
ag16
aa(lp105
I1604
aI91
aI1
aI0
ag11
aa(lp106
I1611
aI92
aI1
aI0
ag11
aa(lp107
I1623
aI93
aI0
aI0
ag16
aa(lp108
I1629
aI94
aI1
aI0
ag11
aa(lp109
I1635
aI95
aI1
aI0
ag11
aa(lp110
I1643
aI96
aI1
aI0
ag11
aa(lp111
I1843
aI97
aI0
aI0
ag11
aa(lp112
I1868
aI98
aI1
aI0
ag11
aa(lp113
I1880
aI99
aI0
aI0
ag16
aa(lp114
I1908
aI100
aI1
aI0
ag11
aa(lp115
I1921
aI101
aI1
aI0
ag11
aa(lp116
I1955
aI102
aI0
aI0
ag16
aa(lp117
I1970
aI103
aI1
aI0
ag11
aa(lp118
I2004
aI104
aI0
aI0
ag16
aa(lp119
I2017
aI105
aI1
aI0
ag11
aa(lp120
I2034
aI106
aI1
aI0
ag11
aa(lp121
I2040
aI107
aI1
aI0
ag11
aa(lp122
I2045
aI108
aI1
aI0
ag11
aa(lp123
I2055
aI109
aI0
aI0
ag16
aa(lp124
I2060
aI110
aI1
aI0
ag11
aa(lp125
I2067
aI111
aI1
aI0
ag11
aa(lp126
I2094
aI112
aI0
aI0
ag16
aa(lp127
I2105
aI113
aI0
aI0
ag16
aa(lp128
I2125
aI114
aI0
aI0
ag16
aa(lp129
I2142
aI115
aI1
aI0
ag11
aa(lp130
I2159
aI116
aI0
aI0
ag16
aa(lp131
I2164
aI117
aI1
aI0
ag11
aa(lp132
I2174
aI118
aI1
aI0
ag11
aa(lp133
I2183
aI119
aI1
aI0
ag11
aa(lp134
I2193
aI120
aI0
aI0
ag16
aa(lp135
I2199
aI121
aI1
aI0
ag11
aa(lp136
I2211
aI122
aI0
aI0
ag16
aa(lp137
I2226
aI123
aI1
aI0
ag11
aa(lp138
I2232
aI124
aI1
aI0
ag11
aa(lp139
I2245
aI125
aI0
aI0
ag16
aa(lp140
I2251
aI126
aI1
aI0
ag11
aa(lp141
I2263
aI127
aI1
aI0
ag11
aa(lp142
I2272
aI128
aI1
aI0
ag11
aa(lp143
I2287
aI129
aI1
aI0
ag11
aa(lp144
I2294
aI130
aI1
aI0
ag11
aa(lp145
I2320
aI131
aI0
aI0
ag16
aa(lp146
I2331
aI132
aI1
aI0
ag11
aa(lp147
I2336
aI133
aI1
aI0
ag11
aa(lp148
I2346
aI134
aI1
aI0
ag11
aa(lp149
I2392
aI135
aI0
aI0
ag16
aa(lp150
I2398
aI136
aI1
aI0
ag11
aa(lp151
I2408
aI137
aI0
aI0
ag16
aa(lp152
I2419
aI138
aI1
aI0
ag11
aa(lp153
I2430
aI139
aI1
aI0
ag11
aa(lp154
I2435
aI140
aI1
aI0
ag11
aa(lp155
I2446
aI141
aI0
aI0
ag16
aa(lp156
I2473
aI142
aI1
aI0
ag11
aa(lp157
I2505
aI143
aI1
aI0
ag11
aa(lp158
I2516
aI144
aI0
aI0
ag16
aa(lp159
I2528
aI145
aI0
aI0
ag16
aa(lp160
I2557
aI146
aI1
aI0
ag11
aa(lp161
I2562
aI147
aI1
aI0
ag11
aa(lp162
I2574
aI148
aI0
aI0
ag16
aa(lp163
I2580
aI149
aI1
aI0
ag11
aa(lp164
I2586
aI150
aI1
aI0
ag11
aa(lp165
I2593
aI151
aI1
aI0
ag11
aa(lp166
I2615
aI152
aI1
aI0
ag11
aa(lp167
I2627
aI153
aI0
aI0
ag16
aa(lp168
I2638
aI154
aI0
aI0
ag16
aa(lp169
I2653
aI155
aI1
aI0
ag11
aa(lp170
I2664
aI156
aI0
aI0
ag16
aa(lp171
I2670
aI157
aI1
aI0
ag11
aa(lp172
I2676
aI158
aI1
aI0
ag11
aa(lp173
I2695
aI159
aI1
aI0
ag11
aa(lp174
I2714
aI160
aI0
aI0
ag16
aa(lp175
I2723
aI161
aI1
aI0
ag11
aa(lp176
I2737
aI162
aI0
aI0
ag16
aa(lp177
I2748
aI163
aI0
aI0
ag16
aa(lp178
I2759
aI164
aI0
aI0
ag16
aa(lp179
I2771
aI165
aI0
aI0
ag16
aa(lp180
I2777
aI166
aI1
aI0
ag11
aa(lp181
I2788
aI167
aI0
aI0
ag16
aa(lp182
I2799
aI168
aI0
aI0
ag16
aa(lp183
I2809
aI169
aI0
aI0
ag16
aa(lp184
I2823
aI170
aI0
aI0
ag16
aa(lp185
I2839
aI171
aI1
aI0
ag11
aa(lp186
I2855
aI172
aI1
aI0
ag11
aa(lp187
I2865
aI173
aI1
aI0
ag11
aa(lp188
I2876
aI174
aI0
aI0
ag16
aa(lp189
I2882
aI175
aI1
aI0
ag11
aa(lp190
I2887
aI176
aI1
aI0
ag11
aa(lp191
I2900
aI177
aI0
aI0
ag16
aa(lp192
I2925
aI178
aI1
aI0
ag11
aa(lp193
I2937
aI179
aI0
aI0
ag16
aa(lp194
I2967
aI180
aI1
aI0
ag11
aa(lp195
I2995
aI181
aI0
aI0
ag16
aa(lp196
I3029
aI182
aI1
aI0
ag11
aa(lp197
I3137
aI183
aI0
aI0
ag16
aa(lp198
I3145
aI184
aI1
aI0
ag11
aa(lp199
I3345
aI185
aI0
aI0
ag11
aa(lp200
I3350
aI186
aI1
aI0
ag11
aa(lp201
I3356
aI187
aI1
aI0
ag11
aa(lp202
I3370
aI188
aI0
aI0
ag16
aa(lp203
I3380
aI189
aI0
aI0
ag16
aa(lp204
I3386
aI190
aI1
aI0
ag11
aa(lp205
I3406
aI191
aI1
aI0
ag11
aa(lp206
I3417
aI192
aI1
aI0
ag11
aa(lp207
I3423
aI193
aI1
aI0
ag11
aa(lp208
I3432
aI194
aI1
aI0
ag11
aa(lp209
I3438
aI195
aI1
aI0
ag11
aa(lp210
I3442
aI196
aI1
aI0
ag11
aa(lp211
I3490
aI197
aI0
aI0
ag16
aa(lp212
I3503
aI198
aI0
aI0
ag16
aa(lp213
I3513
aI199
aI0
aI0
ag16
aa(lp214
I3524
aI200
aI0
aI0
ag16
aa(lp215
I3543
aI201
aI0
aI0
ag16
aa(lp216
I3567
aI202
aI1
aI0
ag11
aa(lp217
I3590
aI203
aI0
aI0
ag16
aa(lp218
I3601
aI204
aI0
aI0
ag16
aa(lp219
I3615
aI205
aI0
aI0
ag16
aa(lp220
I3622
aI206
aI1
aI0
ag11
aa(lp221
I3633
aI207
aI0
aI0
ag16
aa(lp222
I3729
aI208
aI1
aI0
ag11
aa(lp223
I3746
aI209
aI0
aI0
ag16
aa(lp224
I3757
aI210
aI0
aI0
ag16
aa(lp225
I3763
aI211
aI1
aI0
ag11
aa(lp226
I3771
aI212
aI1
aI0
ag11
aa(lp227
I3778
aI213
aI1
aI0
ag11
aa(lp228
I3789
aI214
aI0
aI0
ag16
aa(lp229
I3799
aI215
aI1
aI0
ag11
aa(lp230
I3806
aI216
aI1
aI0
ag11
aa(lp231
I3819
aI217
aI1
aI0
ag11
aa(lp232
I3833
aI218
aI1
aI0
ag11
aa(lp233
I3840
aI219
aI1
aI0
ag11
aa(lp234
I3846
aI220
aI1
aI0
ag11
aa(lp235
I3869
aI221
aI0
aI0
ag16
aa(lp236
I3879
aI222
aI0
aI0
ag16
aa(lp237
I3885
aI223
aI1
aI0
ag11
aa(lp238
I3907
aI224
aI1
aI0
ag11
aa(lp239
I3914
aI225
aI1
aI0
ag11
aa(lp240
I3925
aI226
aI0
aI0
ag16
aa(lp241
I3930
aI227
aI1
aI0
ag11
aa(lp242
I3941
aI228
aI0
aI0
ag16
aa(lp243
I3949
aI229
aI1
aI0
ag11
aa(lp244
I3961
aI230
aI0
aI0
ag16
aa(lp245
I3974
aI231
aI0
aI0
ag16
aa(lp246
I3981
aI232
aI1
aI0
ag11
aa(lp247
I3996
aI233
aI1
aI0
ag11
aa(lp248
I4010
aI234
aI1
aI0
ag11
aa(lp249
I4031
aI235
aI1
aI0
ag11
aa(lp250
I4072
aI236
aI0
aI0
ag16
aa(lp251
I4084
aI237
aI0
aI0
ag16
aa(lp252
I4126
aI238
aI1
aI0
ag11
aa(lp253
I4132
aI239
aI1
aI0
ag11
aa(lp254
I4166
aI240
aI0
aI0
ag16
aa(lp255
I4181
aI241
aI0
aI0
ag16
aa(lp256
I4225
aI242
aI1
aI0
ag11
aa(lp257
I4232
aI243
aI1
aI0
ag11
aa(lp258
I4245
aI244
aI0
aI0
ag16
aa(lp259
I4311
aI245
aI1
aI0
ag11
aa(lp260
I4322
aI246
aI0
aI0
ag16
aa(lp261
I4334
aI247
aI0
aI0
ag16
aa(lp262
I4355
aI248
aI0
aI0
ag16
aa(lp263
I4367
aI249
aI0
aI0
ag16
aa(lp264
I4373
aI250
aI1
aI0
ag11
aa(lp265
I4396
aI251
aI0
aI0
ag16
aa(lp266
I4407
aI252
aI0
aI0
ag16
aa(lp267
I4448
aI253
aI0
aI0
ag16
aa(lp268
I4454
aI254
aI1
aI0
ag11
aa(lp269
I4460
aI255
aI1
aI0
ag11
aa(lp270
I4532
aI256
aI1
aI0
ag11
aa(lp271
I4549
aI257
aI1
aI0
ag11
aa(lp272
I4556
aI258
aI1
aI0
ag11
aa(lp273
I4605
aI259
aI1
aI0
ag11
aa(lp274
I4620
aI260
aI1
aI0
ag11
aa(lp275
I4627
aI261
aI1
aI0
ag11
aa(lp276
I4641
aI262
aI0
aI0
ag16
aa(lp277
I4654
aI263
aI0
aI0
ag16
aa(lp278
I4661
aI264
aI1
aI0
ag11
aa(lp279
I4676
aI265
aI1
aI0
ag11
aa(lp280
I4682
aI266
aI1
aI0
ag11
aa(lp281
I4696
aI267
aI0
aI0
ag16
aa(lp282
I4709
aI268
aI0
aI0
ag16
aa(lp283
I4739
aI269
aI1
aI0
ag11
aa(lp284
I4745
aI270
aI1
aI0
ag11
aa(lp285
I4759
aI271
aI0
aI0
ag16
aa(lp286
I4771
aI272
aI0
aI0
ag16
aa(lp287
I4776
aI273
aI1
aI0
ag11
aa(lp288
I4792
aI274
aI0
aI0
ag16
aa(lp289
I4801
aI275
aI0
aI0
ag16
aa(lp290
I4806
aI276
aI1
aI0
ag11
aa(lp291
I4812
aI277
aI1
aI0
ag11
aa(lp292
I4827
aI278
aI0
aI0
ag16
aa(lp293
I4842
aI279
aI0
aI0
ag16
aa(lp294
I4853
aI280
aI1
aI0
ag11
aa(lp295
I4863
aI281
aI0
aI0
ag16
aa(lp296
I4871
aI282
aI1
aI0
ag11
aa(lp297
I4891
aI283
aI0
aI0
ag16
aa(lp298
I4903
aI284
aI0
aI0
ag16
aa(lp299
I4914
aI285
aI0
aI0
ag16
aa(lp300
I4933
aI286
aI1
aI0
ag11
aa(lp301
I4947
aI287
aI0
aI0
ag16
aa(lp302
I4973
aI288
aI1
aI0
ag11
aa(lp303
I4984
aI289
aI1
aI0
ag11
aa(lp304
I4991
aI290
aI1
aI0
ag11
aa(lp305
I5002
aI291
aI0
aI0
ag16
aa(lp306
I5013
aI292
aI0
aI0
ag16
aa(lp307
I5018
aI293
aI1
aI0
ag11
aa(lp308
I5030
aI294
aI0
aI0
ag16
aa(lp309
I5040
aI295
aI0
aI0
ag16
aa(lp310
I5051
aI296
aI0
aI0
ag16
aa(lp311
I5063
aI297
aI1
aI0
ag11
aa(lp312
I5084
aI298
aI1
aI0
ag11
aa(lp313
I5094
aI299
aI1
aI0
ag11
aa(lp314
I5110
aI300
aI1
aI0
ag11
aa(lp315
I5122
aI301
aI0
aI0
ag16
aa(lp316
I5134
aI302
aI0
aI0
ag16
aa(lp317
I5334
aI303
aI0
aI0
ag11
aa(lp318
I5341
aI304
aI1
aI0
ag11
aa(lp319
I5364
aI305
aI0
aI0
ag16
aa(lp320
I5408
aI306
aI1
aI0
ag11
aa(lp321
I5417
aI307
aI1
aI0
ag11
aa(lp322
I5423
aI308
aI1
aI0
ag11
aa(lp323
I5438
aI309
aI1
aI0
ag11
aa(lp324
I5452
aI310
aI1
aI0
ag11
aa(lp325
I5457
aI311
aI1
aI0
ag11
aa(lp326
I5469
aI312
aI0
aI0
ag16
aa(lp327
I5480
aI313
aI0
aI0
ag16
aa(lp328
I5492
aI314
aI0
aI0
ag16
aa(lp329
I5507
aI315
aI0
aI0
ag16
aa(lp330
I5520
aI316
aI0
aI0
ag16
aa(lp331
I5531
aI317
aI0
aI0
ag16
aa(lp332
I5548
aI318
aI0
aI0
ag16
aa(lp333
I5558
aI319
aI0
aI0
ag16
aa(lp334
I5575
aI320
aI1
aI0
ag11
aa(lp335
I5585
aI321
aI0
aI0
ag16
aa(lp336
I5602
aI322
aI0
aI0
ag16
aa(lp337
I5613
aI323
aI0
aI0
ag16
aa(lp338
I5701
aI324
aI1
aI0
ag11
aa(lp339
I5720
aI325
aI0
aI0
ag16
aa(lp340
I5733
aI326
aI1
aI0
ag11
aa(lp341
I5754
aI327
aI0
aI0
ag16
aa(lp342
I5760
aI328
aI1
aI0
ag11
aa(lp343
I5778
aI329
aI0
aI0
ag16
aa(lp344
I5789
aI330
aI0
aI0
ag16
aa(lp345
I5806
aI331
aI0
aI0
ag16
aa(lp346
I5812
aI332
aI1
aI0
ag11
aa(lp347
I5828
aI333
aI0
aI0
ag16
aa(lp348
I5845
aI334
aI1
aI0
ag11
aa(lp349
I5853
aI335
aI1
aI0
ag11
aa(lp350
I5872
aI336
aI1
aI0
ag11
aa(lp351
I5880
aI337
aI1
aI0
ag11
aa(lp352
I5894
aI338
aI0
aI0
ag16
aa(lp353
I5930
aI339
aI1
aI0
ag11
aa(lp354
I5939
aI340
aI1
aI0
ag11
aa(lp355
I5965
aI341
aI1
aI0
ag11
aa(lp356
I5975
aI342
aI0
aI0
ag16
aa(lp357
I5986
aI343
aI1
aI0
ag11
aa(lp358
I6001
aI344
aI0
aI0
ag16
aa.