(lp0
(lp1
I78
aI0
aI0
aI0
acnumpy.core.multiarray
scalar
p2
(cnumpy
dtype
p3
(S'b1'
p4
I0
I1
tp5
Rp6
(I3
S'|'
p7
NNNI-1
I-1
I0
tp8
bS'\x01'
p9
tp10
Rp11
aa(lp12
I278
aI1
aI0
aI0
ag2
(g6
S'\x00'
p13
tp14
Rp15
aa(lp16
I478
aI2
aI0
aI0
ag15
aa(lp17
I505
aI3
aI0
aI0
ag11
aa(lp18
I705
aI4
aI0
aI0
ag15
aa(lp19
I905
aI5
aI0
aI0
ag15
aa(lp20
I1104
aI6
aI1
aI0
ag15
aa(lp21
I1304
aI7
aI0
aI0
ag15
aa(lp22
I1321
aI8
aI1
aI0
ag15
aa(lp23
I1521
aI9
aI0
aI0
ag15
aa(lp24
I1721
aI10
aI0
aI0
ag15
aa(lp25
I1752
aI11
aI1
aI0
ag15
aa(lp26
I1853
aI12
aI1
aI0
ag15
aa(lp27
I1964
aI13
aI1
aI0
ag15
aa(lp28
I2095
aI14
aI0
aI0
ag11
aa(lp29
I2295
aI15
aI0
aI0
ag15
aa(lp30
I2409
aI16
aI1
aI0
ag15
aa(lp31
I2447
aI17
aI1
aI0
ag15
aa(lp32
I2647
aI18
aI0
aI0
ag15
aa(lp33
I2791
aI19
aI1
aI0
ag15
aa(lp34
I2991
aI20
aI0
aI0
ag15
aa(lp35
I3191
aI21
aI0
aI0
ag15
aa(lp36
I3391
aI22
aI0
aI0
ag15
aa(lp37
I3591
aI23
aI0
aI0
ag15
aa(lp38
I3710
aI24
aI1
aI0
ag15
aa(lp39
I3910
aI25
aI0
aI0
ag15
aa(lp40
I4110
aI26
aI0
aI0
ag15
aa(lp41
I4308
aI27
aI0
aI0
ag11
aa(lp42
I4508
aI28
aI0
aI0
ag15
aa(lp43
I4696
aI29
aI1
aI0
ag15
aa(lp44
I4896
aI30
aI0
aI0
ag15
aa(lp45
I4918
aI31
aI1
aI0
ag15
aa(lp46
I5011
aI32
aI1
aI0
ag15
aa(lp47
I5106
aI33
aI1
aI0
ag15
aa(lp48
I5181
aI34
aI1
aI0
ag15
aa(lp49
I5329
aI35
aI1
aI0
ag15
aa(lp50
I5529
aI36
aI0
aI0
ag15
aa(lp51
I5729
aI37
aI0
aI0
ag15
aa(lp52
I5860
aI38
aI1
aI0
ag15
aa(lp53
I6060
aI39
aI0
aI0
ag15
aa.