(lp0
(lp1
I171
aI0
aI0
aI0
acnumpy.core.multiarray
scalar
p2
(cnumpy
dtype
p3
(S'b1'
p4
I0
I1
tp5
Rp6
(I3
S'|'
p7
NNNI-1
I-1
I0
tp8
bS'\x01'
p9
tp10
Rp11
aa(lp12
I220
aI1
aI1
aI0
ag2
(g6
S'\x00'
p13
tp14
Rp15
aa(lp16
I265
aI2
aI0
aI0
ag11
aa(lp17
I270
aI3
aI1
aI0
ag15
aa(lp18
I291
aI4
aI1
aI0
ag15
aa(lp19
I305
aI5
aI1
aI0
ag15
aa(lp20
I313
aI6
aI1
aI0
ag15
aa(lp21
I334
aI7
aI1
aI0
ag15
aa(lp22
I425
aI8
aI1
aI0
ag15
aa(lp23
I445
aI9
aI1
aI0
ag15
aa(lp24
I495
aI10
aI1
aI0
ag15
aa(lp25
I510
aI11
aI0
aI0
ag11
aa(lp26
I524
aI12
aI1
aI0
ag15
aa(lp27
I530
aI13
aI1
aI0
ag15
aa(lp28
I538
aI14
aI1
aI0
ag15
aa(lp29
I602
aI15
aI1
aI0
ag15
aa(lp30
I609
aI16
aI1
aI0
ag15
aa(lp31
I614
aI17
aI1
aI0
ag15
aa(lp32
I639
aI18
aI0
aI0
ag11
aa(lp33
I727
aI19
aI1
aI0
ag15
aa(lp34
I743
aI20
aI1
aI0
ag15
aa(lp35
I747
aI21
aI1
aI0
ag15
aa(lp36
I780
aI22
aI1
aI0
ag15
aa(lp37
I848
aI23
aI1
aI0
ag15
aa(lp38
I861
aI24
aI0
aI0
ag11
aa(lp39
I866
aI25
aI1
aI0
ag15
aa(lp40
I878
aI26
aI1
aI0
ag15
aa(lp41
I889
aI27
aI1
aI0
ag15
aa(lp42
I894
aI28
aI1
aI0
ag15
aa(lp43
I947
aI29
aI0
aI0
ag11
aa(lp44
I954
aI30
aI1
aI0
ag15
aa(lp45
I959
aI31
aI1
aI0
ag15
aa(lp46
I967
aI32
aI1
aI0
ag15
aa(lp47
I1056
aI33
aI0
aI0
ag11
aa(lp48
I1061
aI34
aI1
aI0
ag15
aa(lp49
I1065
aI35
aI1
aI0
ag15
aa(lp50
I1076
aI36
aI1
aI0
ag15
aa(lp51
I1086
aI37
aI1
aI0
ag15
aa(lp52
I1120
aI38
aI0
aI0
ag11
aa(lp53
I1235
aI39
aI1
aI0
ag15
aa(lp54
I1259
aI40
aI0
aI0
ag11
aa(lp55
I1280
aI41
aI0
aI0
ag11
aa(lp56
I1480
aI42
aI0
aI0
ag15
aa(lp57
I1485
aI43
aI1
aI0
ag15
aa(lp58
I1529
aI44
aI0
aI0
ag11
aa(lp59
I1541
aI45
aI1
aI0
ag15
aa(lp60
I1546
aI46
aI1
aI0
ag15
aa(lp61
I1550
aI47
aI1
aI0
ag15
aa(lp62
I1597
aI48
aI1
aI0
ag15
aa(lp63
I1602
aI49
aI1
aI0
ag15
aa(lp64
I1628
aI50
aI0
aI0
ag11
aa(lp65
I1634
aI51
aI1
aI0
ag15
aa(lp66
I1667
aI52
aI1
aI0
ag15
aa(lp67
I1677
aI53
aI1
aI0
ag15
aa(lp68
I1727
aI54
aI1
aI0
ag15
aa(lp69
I1744
aI55
aI1
aI0
ag15
aa(lp70
I1761
aI56
aI0
aI0
ag11
aa(lp71
I1781
aI57
aI1
aI0
ag15
aa(lp72
I1792
aI58
aI0
aI0
ag11
aa(lp73
I1803
aI59
aI1
aI0
ag15
aa(lp74
I1827
aI60
aI0
aI0
ag11
aa(lp75
I1832
aI61
aI1
aI0
ag15
aa(lp76
I1851
aI62
aI0
aI0
ag11
aa(lp77
I1900
aI63
aI1
aI0
ag15
aa(lp78
I2100
aI64
aI0
aI0
ag15
aa(lp79
I2126
aI65
aI0
aI0
ag11
aa(lp80
I2142
aI66
aI0
aI0
ag11
aa(lp81
I2268
aI67
aI1
aI0
ag15
aa(lp82
I2273
aI68
aI1
aI0
ag15
aa(lp83
I2286
aI69
aI0
aI0
ag11
aa(lp84
I2312
aI70
aI0
aI0
ag11
aa(lp85
I2355
aI71
aI1
aI0
ag15
aa(lp86
I2365
aI72
aI1
aI0
ag15
aa(lp87
I2502
aI73
aI1
aI0
ag15
aa(lp88
I2507
aI74
aI1
aI0
ag15
aa(lp89
I2545
aI75
aI0
aI0
ag11
aa(lp90
I2558
aI76
aI1
aI0
ag15
aa(lp91
I2572
aI77
aI1
aI0
ag15
aa(lp92
I2584
aI78
aI1
aI0
ag15
aa(lp93
I2628
aI79
aI1
aI0
ag15
aa(lp94
I2639
aI80
aI1
aI0
ag15
aa(lp95
I2652
aI81
aI0
aI0
ag11
aa(lp96
I2661
aI82
aI1
aI0
ag15
aa(lp97
I2779
aI83
aI1
aI0
ag15
aa(lp98
I2789
aI84
aI1
aI0
ag15
aa(lp99
I2799
aI85
aI1
aI0
ag15
aa(lp100
I2809
aI86
aI0
aI0
ag11
aa(lp101
I2825
aI87
aI1
aI0
ag15
aa(lp102
I2844
aI88
aI0
aI0
ag11
aa(lp103
I2864
aI89
aI1
aI0
ag15
aa(lp104
I2872
aI90
aI1
aI0
ag15
aa(lp105
I2882
aI91
aI0
aI0
ag11
aa(lp106
I2898
aI92
aI0
aI0
ag11
aa(lp107
I2906
aI93
aI1
aI0
ag15
aa(lp108
I3106
aI94
aI0
aI0
ag15
aa(lp109
I3113
aI95
aI1
aI0
ag15
aa(lp110
I3121
aI96
aI1
aI0
ag15
aa(lp111
I3126
aI97
aI1
aI0
ag15
aa(lp112
I3141
aI98
aI1
aI0
ag15
aa(lp113
I3171
aI99
aI0
aI0
ag11
aa(lp114
I3189
aI100
aI1
aI0
ag15
aa(lp115
I3199
aI101
aI0
aI0
ag11
aa(lp116
I3230
aI102
aI0
aI0
ag11
aa(lp117
I3244
aI103
aI0
aI0
ag11
aa(lp118
I3277
aI104
aI1
aI0
ag15
aa(lp119
I3320
aI105
aI1
aI0
ag15
aa(lp120
I3327
aI106
aI1
aI0
ag15
aa(lp121
I3351
aI107
aI1
aI0
ag15
aa(lp122
I3367
aI108
aI1
aI0
ag15
aa(lp123
I3373
aI109
aI1
aI0
ag15
aa(lp124
I3403
aI110
aI0
aI0
ag11
aa(lp125
I3407
aI111
aI1
aI0
ag15
aa(lp126
I3424
aI112
aI1
aI0
ag15
aa(lp127
I3457
aI113
aI0
aI0
ag11
aa(lp128
I3465
aI114
aI1
aI0
ag15
aa(lp129
I3582
aI115
aI1
aI0
ag15
aa(lp130
I3782
aI116
aI0
aI0
ag15
aa(lp131
I3792
aI117
aI0
aI0
ag11
aa(lp132
I3798
aI118
aI1
aI0
ag15
aa(lp133
I3825
aI119
aI1
aI0
ag15
aa(lp134
I3873
aI120
aI1
aI0
ag15
aa(lp135
I3888
aI121
aI0
aI0
ag11
aa(lp136
I3939
aI122
aI1
aI0
ag15
aa(lp137
I4038
aI123
aI1
aI0
ag15
aa(lp138
I4140
aI124
aI1
aI0
ag15
aa(lp139
I4150
aI125
aI0
aI0
ag11
aa(lp140
I4267
aI126
aI0
aI0
ag11
aa(lp141
I4273
aI127
aI1
aI0
ag15
aa(lp142
I4383
aI128
aI1
aI0
ag15
aa(lp143
I4583
aI129
aI0
aI0
ag15
aa(lp144
I4600
aI130
aI0
aI0
ag11
aa(lp145
I4627
aI131
aI1
aI0
ag15
aa(lp146
I4655
aI132
aI0
aI0
ag11
aa(lp147
I4680
aI133
aI1
aI0
ag15
aa(lp148
I4766
aI134
aI1
aI0
ag15
aa(lp149
I4793
aI135
aI0
aI0
ag11
aa(lp150
I4886
aI136
aI1
aI0
ag15
aa(lp151
I4890
aI137
aI1
aI0
ag15
aa(lp152
I4906
aI138
aI0
aI0
ag11
aa(lp153
I4942
aI139
aI1
aI0
ag15
aa(lp154
I4957
aI140
aI0
aI0
ag11
aa(lp155
I4962
aI141
aI1
aI0
ag15
aa(lp156
I4975
aI142
aI1
aI0
ag15
aa(lp157
I5028
aI143
aI1
aI0
ag15
aa(lp158
I5047
aI144
aI0
aI0
ag11
aa(lp159
I5071
aI145
aI1
aI0
ag15
aa(lp160
I5079
aI146
aI1
aI0
ag15
aa(lp161
I5084
aI147
aI1
aI0
ag15
aa(lp162
I5097
aI148
aI1
aI0
ag15
aa(lp163
I5113
aI149
aI0
aI0
ag11
aa(lp164
I5119
aI150
aI1
aI0
ag15
aa(lp165
I5132
aI151
aI1
aI0
ag15
aa(lp166
I5173
aI152
aI1
aI0
ag15
aa(lp167
I5193
aI153
aI0
aI0
ag11
aa(lp168
I5204
aI154
aI0
aI0
ag11
aa(lp169
I5208
aI155
aI1
aI0
ag15
aa(lp170
I5218
aI156
aI1
aI0
ag15
aa(lp171
I5418
aI157
aI0
aI0
ag15
aa(lp172
I5442
aI158
aI0
aI0
ag11
aa(lp173
I5458
aI159
aI0
aI0
ag11
aa(lp174
I5471
aI160
aI0
aI0
ag11
aa(lp175
I5489
aI161
aI1
aI0
ag15
aa(lp176
I5497
aI162
aI1
aI0
ag15
aa(lp177
I5508
aI163
aI1
aI0
ag15
aa(lp178
I5513
aI164
aI1
aI0
ag15
aa(lp179
I5534
aI165
aI1
aI0
ag15
aa(lp180
I5542
aI166
aI1
aI0
ag15
aa(lp181
I5559
aI167
aI1
aI0
ag15
aa(lp182
I5682
aI168
aI1
aI0
ag15
aa(lp183
I5882
aI169
aI0
aI0
ag15
aa(lp184
I5898
aI170
aI1
aI0
ag15
aa(lp185
I5902
aI171
aI1
aI0
ag15
aa(lp186
I5999
aI172
aI1
aI0
ag15
aa(lp187
I6034
aI173
aI1
aI0
ag15
aa.