(lp0
(lp1
I200
aI0
aI0
aI0
acnumpy.core.multiarray
scalar
p2
(cnumpy
dtype
p3
(S'b1'
p4
I0
I1
tp5
Rp6
(I3
S'|'
p7
NNNI-1
I-1
I0
tp8
bS'\x00'
p9
tp10
Rp11
aa(lp12
I238
aI1
aI0
aI0
ag2
(g6
S'\x01'
p13
tp14
Rp15
aa(lp16
I432
aI2
aI1
aI0
ag11
aa(lp17
I583
aI3
aI1
aI0
ag11
aa(lp18
I609
aI4
aI0
aI0
ag15
aa(lp19
I630
aI5
aI0
aI0
ag15
aa(lp20
I650
aI6
aI1
aI0
ag11
aa(lp21
I665
aI7
aI1
aI0
ag11
aa(lp22
I678
aI8
aI0
aI0
ag15
aa(lp23
I698
aI9
aI0
aI0
ag15
aa(lp24
I729
aI10
aI0
aI0
ag15
aa(lp25
I745
aI11
aI0
aI0
ag15
aa(lp26
I759
aI12
aI0
aI0
ag15
aa(lp27
I775
aI13
aI0
aI0
ag15
aa(lp28
I794
aI14
aI0
aI0
ag15
aa(lp29
I809
aI15
aI0
aI0
ag15
aa(lp30
I824
aI16
aI0
aI0
ag15
aa(lp31
I838
aI17
aI0
aI0
ag15
aa(lp32
I890
aI18
aI0
aI0
ag15
aa(lp33
I903
aI19
aI0
aI0
ag15
aa(lp34
I915
aI20
aI0
aI0
ag15
aa(lp35
I929
aI21
aI0
aI0
ag15
aa(lp36
I943
aI22
aI0
aI0
ag15
aa(lp37
I960
aI23
aI0
aI0
ag15
aa(lp38
I975
aI24
aI0
aI0
ag15
aa(lp39
I987
aI25
aI0
aI0
ag15
aa(lp40
I1109
aI26
aI0
aI0
ag15
aa(lp41
I1149
aI27
aI1
aI0
ag11
aa(lp42
I1159
aI28
aI1
aI0
ag11
aa(lp43
I1178
aI29
aI0
aI0
ag15
aa(lp44
I1187
aI30
aI1
aI0
ag11
aa(lp45
I1210
aI31
aI1
aI0
ag11
aa(lp46
I1239
aI32
aI1
aI0
ag11
aa(lp47
I1252
aI33
aI0
aI0
ag15
aa(lp48
I1259
aI34
aI1
aI0
ag11
aa(lp49
I1273
aI35
aI0
aI0
ag15
aa(lp50
I1293
aI36
aI1
aI0
ag11
aa(lp51
I1322
aI37
aI0
aI0
ag15
aa(lp52
I1326
aI38
aI1
aI0
ag11
aa(lp53
I1339
aI39
aI1
aI0
ag11
aa(lp54
I1354
aI40
aI1
aI0
ag11
aa(lp55
I1369
aI41
aI0
aI0
ag15
aa(lp56
I1406
aI42
aI1
aI0
ag11
aa(lp57
I1428
aI43
aI0
aI0
ag15
aa(lp58
I1437
aI44
aI1
aI0
ag11
aa(lp59
I1452
aI45
aI0
aI0
ag15
aa(lp60
I1519
aI46
aI1
aI0
ag11
aa(lp61
I1545
aI47
aI1
aI0
ag11
aa(lp62
I1573
aI48
aI0
aI0
ag15
aa(lp63
I1596
aI49
aI1
aI0
ag11
aa(lp64
I1607
aI50
aI1
aI0
ag11
aa(lp65
I1621
aI51
aI0
aI0
ag15
aa(lp66
I1627
aI52
aI1
aI0
ag11
aa(lp67
I1642
aI53
aI0
aI0
ag15
aa(lp68
I1666
aI54
aI0
aI0
ag15
aa(lp69
I1680
aI55
aI1
aI0
ag11
aa(lp70
I1706
aI56
aI1
aI0
ag11
aa(lp71
I1779
aI57
aI1
aI0
ag11
aa(lp72
I1838
aI58
aI0
aI0
ag15
aa(lp73
I1851
aI59
aI1
aI0
ag11
aa(lp74
I1895
aI60
aI0
aI0
ag15
aa(lp75
I1906
aI61
aI0
aI0
ag15
aa(lp76
I1949
aI62
aI1
aI0
ag11
aa(lp77
I1956
aI63
aI1
aI0
ag11
aa(lp78
I2000
aI64
aI1
aI0
ag11
aa(lp79
I2061
aI65
aI1
aI0
ag11
aa(lp80
I2102
aI66
aI1
aI0
ag11
aa(lp81
I2130
aI67
aI1
aI0
ag11
aa(lp82
I2140
aI68
aI0
aI0
ag15
aa(lp83
I2149
aI69
aI1
aI0
ag11
aa(lp84
I2159
aI70
aI0
aI0
ag15
aa(lp85
I2172
aI71
aI0
aI0
ag15
aa(lp86
I2179
aI72
aI1
aI0
ag11
aa(lp87
I2192
aI73
aI0
aI0
ag15
aa(lp88
I2392
aI74
aI0
aI0
ag11
aa(lp89
I2398
aI75
aI1
aI0
ag11
aa(lp90
I2422
aI76
aI1
aI0
ag11
aa(lp91
I2442
aI77
aI1
aI0
ag11
aa(lp92
I2524
aI78
aI1
aI0
ag11
aa(lp93
I2544
aI79
aI0
aI0
ag15
aa(lp94
I2614
aI80
aI1
aI0
ag11
aa(lp95
I2632
aI81
aI1
aI0
ag11
aa(lp96
I2654
aI82
aI0
aI0
ag15
aa(lp97
I2666
aI83
aI0
aI0
ag15
aa(lp98
I2685
aI84
aI1
aI0
ag11
aa(lp99
I2714
aI85
aI1
aI0
ag11
aa(lp100
I2726
aI86
aI1
aI0
ag11
aa(lp101
I2756
aI87
aI1
aI0
ag11
aa(lp102
I2762
aI88
aI1
aI0
ag11
aa(lp103
I2773
aI89
aI0
aI0
ag15
aa(lp104
I2822
aI90
aI1
aI0
ag11
aa(lp105
I2842
aI91
aI1
aI0
ag11
aa(lp106
I2852
aI92
aI1
aI0
ag11
aa(lp107
I2873
aI93
aI0
aI0
ag15
aa(lp108
I2883
aI94
aI0
aI0
ag15
aa(lp109
I2908
aI95
aI1
aI0
ag11
aa(lp110
I2942
aI96
aI1
aI0
ag11
aa(lp111
I2953
aI97
aI1
aI0
ag11
aa(lp112
I2958
aI98
aI1
aI0
ag11
aa(lp113
I3013
aI99
aI1
aI0
ag11
aa(lp114
I3031
aI100
aI0
aI0
ag15
aa(lp115
I3045
aI100
aI1
aI0
ag11
aa(lp116
I3090
aI101
aI1
aI0
ag11
aa(lp117
I3145
aI102
aI1
aI0
ag11
aa(lp118
I3152
aI103
aI1
aI0
ag11
aa(lp119
I3352
aI104
aI0
aI0
ag11
aa(lp120
I3363
aI105
aI1
aI0
ag11
aa(lp121
I3369
aI106
aI1
aI0
ag11
aa(lp122
I3378
aI107
aI1
aI0
ag11
aa(lp123
I3384
aI108
aI1
aI0
ag11
aa(lp124
I3434
aI109
aI1
aI0
ag11
aa(lp125
I3447
aI110
aI0
aI0
ag15
aa(lp126
I3455
aI111
aI1
aI0
ag11
aa(lp127
I3463
aI112
aI1
aI0
ag11
aa(lp128
I3602
aI113
aI0
aI0
ag15
aa(lp129
I3655
aI114
aI0
aI0
ag15
aa(lp130
I3661
aI115
aI1
aI0
ag11
aa(lp131
I3776
aI116
aI0
aI0
ag15
aa(lp132
I3874
aI117
aI0
aI0
ag15
aa(lp133
I3888
aI118
aI1
aI0
ag11
aa(lp134
I3899
aI119
aI1
aI0
ag11
aa(lp135
I3958
aI120
aI1
aI0
ag11
aa(lp136
I3972
aI121
aI1
aI0
ag11
aa(lp137
I4172
aI122
aI0
aI0
ag11
aa(lp138
I4191
aI123
aI0
aI0
ag15
aa(lp139
I4216
aI124
aI0
aI0
ag15
aa(lp140
I4282
aI125
aI1
aI0
ag11
aa(lp141
I4309
aI126
aI1
aI0
ag11
aa(lp142
I4331
aI127
aI1
aI0
ag11
aa(lp143
I4371
aI128
aI1
aI0
ag11
aa(lp144
I4380
aI129
aI1
aI0
ag11
aa(lp145
I4398
aI130
aI1
aI0
ag11
aa(lp146
I4428
aI131
aI0
aI0
ag15
aa(lp147
I4492
aI132
aI0
aI0
ag15
aa(lp148
I4501
aI133
aI1
aI0
ag11
aa(lp149
I4547
aI134
aI1
aI0
ag11
aa(lp150
I4658
aI135
aI0
aI0
ag15
aa(lp151
I4677
aI136
aI0
aI0
ag15
aa(lp152
I4732
aI137
aI0
aI0
ag15
aa(lp153
I4806
aI138
aI1
aI0
ag11
aa(lp154
I4841
aI139
aI1
aI0
ag11
aa(lp155
I4911
aI140
aI0
aI0
ag15
aa(lp156
I4955
aI141
aI1
aI0
ag11
aa(lp157
I4969
aI142
aI0
aI0
ag15
aa(lp158
I4985
aI143
aI1
aI0
ag11
aa(lp159
I4997
aI144
aI0
aI0
ag15
aa(lp160
I5014
aI145
aI0
aI0
ag15
aa(lp161
I5045
aI146
aI0
aI0
ag15
aa(lp162
I5049
aI147
aI1
aI0
ag11
aa(lp163
I5069
aI148
aI1
aI0
ag11
aa(lp164
I5077
aI149
aI1
aI0
ag11
aa(lp165
I5162
aI150
aI1
aI0
ag11
aa(lp166
I5180
aI151
aI0
aI0
ag15
aa(lp167
I5186
aI152
aI1
aI0
ag11
aa(lp168
I5235
aI153
aI1
aI0
ag11
aa(lp169
I5250
aI154
aI0
aI0
ag15
aa(lp170
I5265
aI155
aI1
aI0
ag11
aa(lp171
I5283
aI156
aI1
aI0
ag11
aa(lp172
I5353
aI157
aI1
aI0
ag11
aa(lp173
I5374
aI158
aI0
aI0
ag15
aa(lp174
I5429
aI159
aI0
aI0
ag15
aa(lp175
I5438
aI160
aI1
aI0
ag11
aa(lp176
I5447
aI161
aI1
aI0
ag11
aa(lp177
I5464
aI162
aI0
aI0
ag15
aa(lp178
I5481
aI163
aI1
aI0
ag11
aa(lp179
I5512
aI164
aI1
aI0
ag11
aa(lp180
I5522
aI165
aI1
aI0
ag11
aa(lp181
I5548
aI166
aI1
aI0
ag11
aa(lp182
I5556
aI167
aI1
aI0
ag11
aa(lp183
I5605
aI168
aI1
aI0
ag11
aa(lp184
I5642
aI169
aI1
aI0
ag11
aa(lp185
I5650
aI170
aI1
aI0
ag11
aa(lp186
I5660
aI171
aI1
aI0
ag11
aa(lp187
I5688
aI172
aI1
aI0
ag11
aa(lp188
I5708
aI173
aI1
aI0
ag11
aa(lp189
I5713
aI174
aI1
aI0
ag11
aa(lp190
I5726
aI175
aI0
aI0
ag15
aa(lp191
I5734
aI176
aI1
aI0
ag11
aa(lp192
I5746
aI177
aI0
aI0
ag15
aa(lp193
I5763
aI178
aI0
aI0
ag15
aa(lp194
I5784
aI179
aI0
aI0
ag15
aa(lp195
I5841
aI180
aI1
aI0
ag11
aa(lp196
I5854
aI181
aI0
aI0
ag15
aa(lp197
I5891
aI182
aI1
aI0
ag11
aa(lp198
I5987
aI183
aI1
aI0
ag11
aa(lp199
I6011
aI184
aI0
aI0
ag15
aa.