(lp0
(lp1
I167
aI0
aI1
aI0
acnumpy.core.multiarray
scalar
p2
(cnumpy
dtype
p3
(S'b1'
p4
I0
I1
tp5
Rp6
(I3
S'|'
p7
NNNI-1
I-1
I0
tp8
bS'\x00'
p9
tp10
Rp11
aa(lp12
I240
aI1
aI0
aI0
ag2
(g6
S'\x01'
p13
tp14
Rp15
aa(lp16
I271
aI2
aI1
aI0
ag11
aa(lp17
I301
aI3
aI0
aI0
ag15
aa(lp18
I323
aI4
aI0
aI0
ag15
aa(lp19
I350
aI5
aI0
aI0
ag15
aa(lp20
I359
aI6
aI1
aI0
ag11
aa(lp21
I376
aI7
aI0
aI0
ag15
aa(lp22
I389
aI8
aI0
aI0
ag15
aa(lp23
I409
aI9
aI1
aI0
ag11
aa(lp24
I453
aI10
aI1
aI0
ag11
aa(lp25
I518
aI11
aI0
aI0
ag15
aa(lp26
I560
aI12
aI0
aI0
ag15
aa(lp27
I609
aI13
aI0
aI0
ag15
aa(lp28
I634
aI14
aI1
aI0
ag11
aa(lp29
I834
aI15
aI0
aI0
ag11
aa(lp30
I859
aI16
aI0
aI0
ag15
aa(lp31
I928
aI17
aI0
aI0
ag15
aa(lp32
I1013
aI18
aI0
aI0
ag15
aa(lp33
I1039
aI19
aI0
aI0
ag15
aa(lp34
I1055
aI20
aI0
aI0
ag15
aa(lp35
I1094
aI21
aI0
aI0
ag15
aa(lp36
I1104
aI22
aI1
aI0
ag11
aa(lp37
I1219
aI23
aI0
aI0
ag15
aa(lp38
I1273
aI24
aI1
aI0
ag11
aa(lp39
I1357
aI25
aI1
aI0
ag11
aa(lp40
I1367
aI26
aI1
aI0
ag11
aa(lp41
I1403
aI27
aI0
aI0
ag15
aa(lp42
I1451
aI28
aI1
aI0
ag11
aa(lp43
I1476
aI29
aI0
aI0
ag15
aa(lp44
I1538
aI30
aI0
aI0
ag15
aa(lp45
I1573
aI31
aI1
aI0
ag11
aa(lp46
I1723
aI32
aI1
aI0
ag11
aa(lp47
I1733
aI33
aI1
aI0
ag11
aa(lp48
I1786
aI34
aI0
aI0
ag15
aa(lp49
I1858
aI35
aI0
aI0
ag15
aa(lp50
I1901
aI36
aI1
aI0
ag11
aa(lp51
I1955
aI37
aI1
aI0
ag11
aa(lp52
I1978
aI38
aI1
aI0
ag11
aa(lp53
I2002
aI39
aI0
aI0
ag15
aa(lp54
I2022
aI40
aI1
aI0
ag11
aa(lp55
I2052
aI41
aI1
aI0
ag11
aa(lp56
I2085
aI42
aI1
aI0
ag11
aa(lp57
I2114
aI43
aI0
aI0
ag15
aa(lp58
I2148
aI44
aI1
aI0
ag11
aa(lp59
I2230
aI45
aI0
aI0
ag15
aa(lp60
I2250
aI46
aI1
aI0
ag11
aa(lp61
I2278
aI47
aI0
aI0
ag15
aa(lp62
I2467
aI48
aI1
aI0
ag11
aa(lp63
I2480
aI49
aI1
aI0
ag11
aa(lp64
I2491
aI50
aI1
aI0
ag11
aa(lp65
I2553
aI51
aI0
aI0
ag15
aa(lp66
I2753
aI52
aI0
aI0
ag11
aa(lp67
I2859
aI53
aI1
aI0
ag11
aa(lp68
I2879
aI54
aI1
aI0
ag11
aa(lp69
I2903
aI55
aI1
aI0
ag11
aa(lp70
I2973
aI56
aI0
aI0
ag15
aa(lp71
I3004
aI57
aI1
aI0
ag11
aa(lp72
I3033
aI58
aI0
aI0
ag15
aa(lp73
I3053
aI59
aI1
aI0
ag11
aa(lp74
I3113
aI60
aI0
aI0
ag15
aa(lp75
I3147
aI61
aI1
aI0
ag11
aa(lp76
I3196
aI62
aI1
aI0
ag11
aa(lp77
I3220
aI63
aI1
aI0
ag11
aa(lp78
I3322
aI64
aI0
aI0
ag15
aa(lp79
I3405
aI65
aI0
aI0
ag15
aa(lp80
I3435
aI66
aI1
aI0
ag11
aa(lp81
I3502
aI67
aI1
aI0
ag11
aa(lp82
I3565
aI68
aI1
aI0
ag11
aa(lp83
I3673
aI69
aI0
aI0
ag15
aa(lp84
I3788
aI70
aI1
aI0
ag11
aa(lp85
I3841
aI71
aI1
aI0
ag11
aa(lp86
I4006
aI72
aI0
aI0
ag15
aa(lp87
I4035
aI73
aI0
aI0
ag15
aa(lp88
I4066
aI74
aI1
aI0
ag11
aa(lp89
I4155
aI75
aI1
aI0
ag11
aa(lp90
I4241
aI76
aI1
aI0
ag11
aa(lp91
I4264
aI77
aI0
aI0
ag15
aa(lp92
I4297
aI78
aI0
aI0
ag15
aa(lp93
I4336
aI79
aI0
aI0
ag15
aa(lp94
I4391
aI80
aI1
aI0
ag11
aa(lp95
I4407
aI81
aI1
aI0
ag11
aa(lp96
I4562
aI82
aI0
aI0
ag15
aa(lp97
I4585
aI83
aI1
aI0
ag11
aa(lp98
I4601
aI84
aI1
aI0
ag11
aa(lp99
I4623
aI85
aI0
aI0
ag15
aa(lp100
I4660
aI86
aI1
aI0
ag11
aa(lp101
I4765
aI87
aI0
aI0
ag15
aa(lp102
I4965
aI88
aI0
aI0
ag11
aa(lp103
I5053
aI89
aI1
aI0
ag11
aa(lp104
I5081
aI90
aI0
aI0
ag15
aa(lp105
I5246
aI91
aI0
aI0
ag15
aa(lp106
I5269
aI92
aI0
aI0
ag15
aa(lp107
I5280
aI93
aI1
aI0
ag11
aa(lp108
I5480
aI94
aI0
aI0
ag11
aa(lp109
I5513
aI95
aI0
aI0
ag15
aa(lp110
I5555
aI96
aI1
aI0
ag11
aa(lp111
I5569
aI97
aI1
aI0
ag11
aa(lp112
I5612
aI98
aI1
aI0
ag11
aa(lp113
I5638
aI99
aI1
aI0
ag11
aa(lp114
I5838
aI100
aI0
aI0
ag11
aa(lp115
I5861
aI100
aI1
aI0
ag11
aa.