(lp0
(lp1
I200
aI0
aI0
aI0
acnumpy.core.multiarray
scalar
p2
(cnumpy
dtype
p3
(S'b1'
p4
I0
I1
tp5
Rp6
(I3
S'|'
p7
NNNI-1
I-1
I0
tp8
bS'\x00'
p9
tp10
Rp11
aa(lp12
I382
aI1
aI0
aI0
ag2
(g6
S'\x01'
p13
tp14
Rp15
aa(lp16
I582
aI2
aI0
aI0
ag11
aa(lp17
I617
aI3
aI1
aI0
ag11
aa(lp18
I710
aI4
aI0
aI0
ag15
aa(lp19
I751
aI5
aI0
aI0
ag15
aa(lp20
I775
aI6
aI1
aI0
ag11
aa(lp21
I937
aI7
aI0
aI0
ag15
aa(lp22
I1131
aI8
aI0
aI0
ag15
aa(lp23
I1331
aI9
aI0
aI0
ag11
aa(lp24
I1348
aI10
aI1
aI0
ag11
aa(lp25
I1548
aI11
aI0
aI0
ag11
aa(lp26
I1584
aI12
aI1
aI0
ag11
aa(lp27
I1784
aI13
aI0
aI0
ag11
aa(lp28
I1804
aI14
aI1
aI0
ag11
aa(lp29
I2004
aI15
aI0
aI0
ag11
aa(lp30
I2204
aI16
aI0
aI0
ag11
aa(lp31
I2404
aI17
aI0
aI0
ag11
aa(lp32
I2604
aI18
aI0
aI0
ag11
aa(lp33
I2764
aI19
aI0
aI0
ag15
aa(lp34
I2964
aI20
aI0
aI0
ag11
aa(lp35
I3164
aI21
aI0
aI0
ag11
aa(lp36
I3364
aI22
aI0
aI0
ag11
aa(lp37
I3509
aI23
aI0
aI0
ag15
aa(lp38
I3619
aI24
aI1
aI0
ag11
aa(lp39
I3819
aI25
aI0
aI0
ag11
aa(lp40
I3892
aI26
aI0
aI0
ag15
aa(lp41
I3983
aI27
aI1
aI0
ag11
aa(lp42
I4039
aI28
aI1
aI0
ag11
aa(lp43
I4239
aI29
aI0
aI0
ag11
aa(lp44
I4397
aI30
aI0
aI0
ag15
aa(lp45
I4536
aI31
aI1
aI0
ag11
aa(lp46
I4736
aI32
aI0
aI0
ag11
aa(lp47
I4936
aI33
aI0
aI0
ag11
aa(lp48
I5136
aI34
aI0
aI0
ag11
aa(lp49
I5336
aI35
aI0
aI0
ag11
aa(lp50
I5414
aI36
aI1
aI0
ag11
aa(lp51
I5614
aI37
aI0
aI0
ag11
aa(lp52
I5732
aI38
aI0
aI0
ag15
aa(lp53
I5932
aI39
aI0
aI0
ag11
aa(lp54
I6048
aI40
aI1
aI0
ag11
aa.