(lp0
(lp1
I130
aI0
aI0
aI0
acnumpy.core.multiarray
scalar
p2
(cnumpy
dtype
p3
(S'b1'
p4
I0
I1
tp5
Rp6
(I3
S'|'
p7
NNNI-1
I-1
I0
tp8
bS'\x01'
p9
tp10
Rp11
aa(lp12
I169
aI1
aI1
aI0
ag2
(g6
S'\x00'
p13
tp14
Rp15
aa(lp16
I175
aI2
aI1
aI0
ag15
aa(lp17
I270
aI3
aI0
aI0
ag11
aa(lp18
I470
aI4
aI0
aI0
ag15
aa(lp19
I510
aI5
aI1
aI0
ag15
aa(lp20
I590
aI6
aI1
aI0
ag15
aa(lp21
I607
aI7
aI1
aI0
ag15
aa(lp22
I688
aI8
aI1
aI0
ag15
aa(lp23
I738
aI9
aI1
aI0
ag15
aa(lp24
I814
aI10
aI1
aI0
ag15
aa(lp25
I867
aI11
aI1
aI0
ag15
aa(lp26
I1015
aI12
aI1
aI0
ag15
aa(lp27
I1141
aI13
aI1
aI0
ag15
aa(lp28
I1177
aI14
aI1
aI0
ag15
aa(lp29
I1202
aI15
aI1
aI0
ag15
aa(lp30
I1247
aI16
aI1
aI0
ag15
aa(lp31
I1256
aI17
aI1
aI0
ag15
aa(lp32
I1287
aI18
aI1
aI0
ag15
aa(lp33
I1353
aI19
aI0
aI0
ag11
aa(lp34
I1358
aI20
aI1
aI0
ag15
aa(lp35
I1383
aI21
aI1
aI0
ag15
aa(lp36
I1400
aI22
aI1
aI0
ag15
aa(lp37
I1431
aI23
aI0
aI0
ag11
aa(lp38
I1446
aI24
aI1
aI0
ag15
aa(lp39
I1459
aI25
aI1
aI0
ag15
aa(lp40
I1476
aI26
aI1
aI0
ag15
aa(lp41
I1490
aI27
aI1
aI0
ag15
aa(lp42
I1534
aI28
aI1
aI0
ag15
aa(lp43
I1584
aI29
aI0
aI0
ag11
aa(lp44
I1614
aI30
aI1
aI0
ag15
aa(lp45
I1633
aI31
aI0
aI0
ag11
aa(lp46
I1655
aI32
aI1
aI0
ag15
aa(lp47
I1749
aI33
aI1
aI0
ag15
aa(lp48
I1847
aI34
aI1
aI0
ag15
aa(lp49
I1966
aI35
aI0
aI0
ag11
aa(lp50
I2019
aI36
aI0
aI0
ag11
aa(lp51
I2041
aI37
aI1
aI0
ag15
aa(lp52
I2179
aI38
aI1
aI0
ag15
aa(lp53
I2200
aI39
aI1
aI0
ag15
aa(lp54
I2230
aI40
aI1
aI0
ag15
aa(lp55
I2327
aI41
aI1
aI0
ag15
aa(lp56
I2340
aI42
aI1
aI0
ag15
aa(lp57
I2364
aI43
aI1
aI0
ag15
aa(lp58
I2389
aI44
aI1
aI0
ag15
aa(lp59
I2426
aI45
aI1
aI0
ag15
aa(lp60
I2436
aI46
aI1
aI0
ag15
aa(lp61
I2464
aI47
aI1
aI0
ag15
aa(lp62
I2549
aI48
aI1
aI0
ag15
aa(lp63
I2595
aI49
aI1
aI0
ag15
aa(lp64
I2638
aI50
aI0
aI0
ag11
aa(lp65
I2681
aI51
aI0
aI0
ag11
aa(lp66
I2701
aI52
aI1
aI0
ag15
aa(lp67
I2712
aI53
aI1
aI0
ag15
aa(lp68
I2735
aI54
aI1
aI0
ag15
aa(lp69
I2745
aI55
aI1
aI0
ag15
aa(lp70
I2871
aI56
aI0
aI0
ag11
aa(lp71
I2913
aI57
aI1
aI0
ag15
aa(lp72
I2930
aI58
aI0
aI0
ag11
aa(lp73
I2935
aI59
aI1
aI0
ag15
aa(lp74
I2956
aI60
aI0
aI0
ag11
aa(lp75
I2965
aI61
aI1
aI0
ag15
aa(lp76
I3033
aI62
aI0
aI0
ag11
aa(lp77
I3095
aI63
aI1
aI0
ag15
aa(lp78
I3112
aI64
aI1
aI0
ag15
aa(lp79
I3129
aI65
aI0
aI0
ag11
aa(lp80
I3160
aI66
aI1
aI0
ag15
aa(lp81
I3216
aI67
aI1
aI0
ag15
aa(lp82
I3230
aI68
aI1
aI0
ag15
aa(lp83
I3273
aI69
aI1
aI0
ag15
aa(lp84
I3287
aI70
aI1
aI0
ag15
aa(lp85
I3340
aI71
aI0
aI0
ag11
aa(lp86
I3419
aI72
aI1
aI0
ag15
aa(lp87
I3452
aI73
aI0
aI0
ag11
aa(lp88
I3474
aI74
aI0
aI0
ag11
aa(lp89
I3490
aI75
aI1
aI0
ag15
aa(lp90
I3512
aI76
aI1
aI0
ag15
aa(lp91
I3521
aI77
aI1
aI0
ag15
aa(lp92
I3598
aI78
aI1
aI0
ag15
aa(lp93
I3686
aI79
aI1
aI0
ag15
aa(lp94
I3715
aI80
aI1
aI0
ag15
aa(lp95
I3735
aI81
aI1
aI0
ag15
aa(lp96
I3745
aI82
aI1
aI0
ag15
aa(lp97
I3806
aI83
aI0
aI0
ag11
aa(lp98
I3820
aI84
aI1
aI0
ag15
aa(lp99
I3866
aI85
aI0
aI0
ag11
aa(lp100
I3887
aI86
aI0
aI0
ag11
aa(lp101
I3955
aI87
aI0
aI0
ag11
aa(lp102
I3962
aI88
aI1
aI0
ag15
aa(lp103
I4004
aI89
aI1
aI0
ag15
aa(lp104
I4021
aI90
aI0
aI0
ag11
aa(lp105
I4029
aI91
aI1
aI0
ag15
aa(lp106
I4041
aI92
aI1
aI0
ag15
aa(lp107
I4055
aI93
aI1
aI0
ag15
aa(lp108
I4062
aI94
aI1
aI0
ag15
aa(lp109
I4079
aI95
aI1
aI0
ag15
aa(lp110
I4095
aI96
aI0
aI0
ag11
aa(lp111
I4109
aI97
aI0
aI0
ag11
aa(lp112
I4118
aI98
aI1
aI0
ag15
aa(lp113
I4185
aI99
aI0
aI0
ag11
aa(lp114
I4263
aI100
aI1
aI0
ag15
aa(lp115
I4279
aI101
aI1
aI0
ag15
aa(lp116
I4296
aI102
aI0
aI0
ag11
aa(lp117
I4310
aI103
aI1
aI0
ag15
aa(lp118
I4328
aI104
aI1
aI0
ag15
aa(lp119
I4347
aI105
aI1
aI0
ag15
aa(lp120
I4522
aI106
aI1
aI0
ag15
aa(lp121
I4532
aI107
aI0
aI0
ag11
aa(lp122
I4563
aI108
aI1
aI0
ag15
aa(lp123
I4633
aI109
aI1
aI0
ag15
aa(lp124
I4652
aI110
aI1
aI0
ag15
aa(lp125
I4660
aI111
aI1
aI0
ag15
aa(lp126
I4670
aI112
aI1
aI0
ag15
aa(lp127
I4713
aI113
aI1
aI0
ag15
aa(lp128
I4728
aI114
aI1
aI0
ag15
aa(lp129
I4740
aI115
aI1
aI0
ag15
aa(lp130
I4775
aI116
aI0
aI0
ag11
aa(lp131
I4825
aI117
aI1
aI0
ag15
aa(lp132
I4834
aI118
aI1
aI0
ag15
aa(lp133
I4854
aI119
aI0
aI0
ag11
aa(lp134
I4860
aI120
aI1
aI0
ag15
aa(lp135
I4932
aI121
aI1
aI0
ag15
aa(lp136
I4937
aI122
aI1
aI0
ag15
aa(lp137
I4962
aI123
aI1
aI0
ag15
aa(lp138
I4977
aI124
aI1
aI0
ag15
aa(lp139
I4993
aI125
aI0
aI0
ag11
aa(lp140
I5004
aI126
aI1
aI0
ag15
aa(lp141
I5024
aI127
aI1
aI0
ag15
aa(lp142
I5066
aI128
aI0
aI0
ag11
aa(lp143
I5073
aI129
aI1
aI0
ag15
aa(lp144
I5111
aI130
aI0
aI0
ag11
aa(lp145
I5132
aI131
aI1
aI0
ag15
aa(lp146
I5164
aI132
aI1
aI0
ag15
aa(lp147
I5362
aI133
aI0
aI0
ag11
aa(lp148
I5392
aI134
aI1
aI0
ag15
aa(lp149
I5406
aI135
aI1
aI0
ag15
aa(lp150
I5425
aI136
aI1
aI0
ag15
aa(lp151
I5456
aI137
aI1
aI0
ag15
aa(lp152
I5467
aI138
aI1
aI0
ag15
aa(lp153
I5497
aI139
aI1
aI0
ag15
aa(lp154
I5506
aI140
aI1
aI0
ag15
aa(lp155
I5526
aI141
aI0
aI0
ag11
aa(lp156
I5561
aI142
aI1
aI0
ag15
aa(lp157
I5568
aI143
aI1
aI0
ag15
aa(lp158
I5602
aI144
aI1
aI0
ag15
aa(lp159
I5802
aI145
aI0
aI0
ag15
aa(lp160
I5823
aI146
aI1
aI0
ag15
aa(lp161
I5865
aI147
aI1
aI0
ag15
aa(lp162
I5873
aI148
aI1
aI0
ag15
aa(lp163
I5884
aI149
aI1
aI0
ag15
aa(lp164
I5899
aI150
aI1
aI0
ag15
aa(lp165
I5947
aI151
aI1
aI0
ag15
aa(lp166
I5956
aI152
aI1
aI0
ag15
aa(lp167
I6014
aI153
aI1
aI0
ag15
aa.