(lp0
(lp1
I200
aI0
aI0
aI0
acnumpy.core.multiarray
scalar
p2
(cnumpy
dtype
p3
(S'b1'
p4
I0
I1
tp5
Rp6
(I3
S'|'
p7
NNNI-1
I-1
I0
tp8
bS'\x00'
p9
tp10
Rp11
aa(lp12
I256
aI1
aI0
aI0
ag2
(g6
S'\x01'
p13
tp14
Rp15
aa(lp16
I272
aI2
aI1
aI0
ag11
aa(lp17
I310
aI3
aI0
aI0
ag15
aa(lp18
I428
aI4
aI1
aI0
ag11
aa(lp19
I628
aI5
aI0
aI0
ag11
aa(lp20
I828
aI6
aI0
aI0
ag11
aa(lp21
I873
aI7
aI0
aI0
ag15
aa(lp22
I891
aI8
aI0
aI0
ag15
aa(lp23
I938
aI9
aI0
aI0
ag15
aa(lp24
I1094
aI10
aI1
aI0
ag11
aa(lp25
I1137
aI11
aI0
aI0
ag15
aa(lp26
I1153
aI12
aI1
aI0
ag11
aa(lp27
I1285
aI13
aI0
aI0
ag15
aa(lp28
I1313
aI14
aI1
aI0
ag11
aa(lp29
I1339
aI15
aI0
aI0
ag15
aa(lp30
I1401
aI16
aI1
aI0
ag11
aa(lp31
I1496
aI17
aI1
aI0
ag11
aa(lp32
I1672
aI18
aI0
aI0
ag15
aa(lp33
I1682
aI19
aI1
aI0
ag11
aa(lp34
I1692
aI20
aI1
aI0
ag11
aa(lp35
I1701
aI21
aI1
aI0
ag11
aa(lp36
I1720
aI22
aI1
aI0
ag11
aa(lp37
I1730
aI23
aI1
aI0
ag11
aa(lp38
I1750
aI24
aI1
aI0
ag11
aa(lp39
I1766
aI25
aI1
aI0
ag11
aa(lp40
I1851
aI26
aI0
aI0
ag15
aa(lp41
I1875
aI27
aI1
aI0
ag11
aa(lp42
I1948
aI28
aI0
aI0
ag15
aa(lp43
I1988
aI29
aI1
aI0
ag11
aa(lp44
I2070
aI30
aI1
aI0
ag11
aa(lp45
I2141
aI31
aI1
aI0
ag11
aa(lp46
I2267
aI32
aI1
aI0
ag11
aa(lp47
I2292
aI33
aI1
aI0
ag11
aa(lp48
I2349
aI34
aI1
aI0
ag11
aa(lp49
I2365
aI35
aI0
aI0
ag15
aa(lp50
I2440
aI36
aI0
aI0
ag15
aa(lp51
I2593
aI37
aI1
aI0
ag11
aa(lp52
I2776
aI38
aI1
aI0
ag11
aa(lp53
I2821
aI39
aI1
aI0
ag11
aa(lp54
I2841
aI40
aI1
aI0
ag11
aa(lp55
I2875
aI41
aI1
aI0
ag11
aa(lp56
I3075
aI42
aI0
aI0
ag11
aa(lp57
I3101
aI43
aI1
aI0
ag11
aa(lp58
I3301
aI44
aI0
aI0
ag11
aa(lp59
I3328
aI45
aI1
aI0
ag11
aa(lp60
I3528
aI46
aI0
aI0
ag11
aa(lp61
I3574
aI47
aI0
aI0
ag15
aa(lp62
I3598
aI48
aI1
aI0
ag11
aa(lp63
I3636
aI49
aI0
aI0
ag15
aa(lp64
I3770
aI50
aI0
aI0
ag15
aa(lp65
I3787
aI51
aI1
aI0
ag11
aa(lp66
I3804
aI52
aI0
aI0
ag15
aa(lp67
I3831
aI53
aI0
aI0
ag15
aa(lp68
I3847
aI54
aI1
aI0
ag11
aa(lp69
I3884
aI55
aI1
aI0
ag11
aa(lp70
I4084
aI56
aI0
aI0
ag11
aa(lp71
I4105
aI57
aI1
aI0
ag11
aa(lp72
I4244
aI58
aI1
aI0
ag11
aa(lp73
I4279
aI59
aI1
aI0
ag11
aa(lp74
I4366
aI60
aI0
aI0
ag15
aa(lp75
I4420
aI61
aI0
aI0
ag15
aa(lp76
I4435
aI62
aI1
aI0
ag11
aa(lp77
I4454
aI63
aI1
aI0
ag11
aa(lp78
I4500
aI64
aI1
aI0
ag11
aa(lp79
I4508
aI65
aI1
aI0
ag11
aa(lp80
I4525
aI66
aI1
aI0
ag11
aa(lp81
I4536
aI67
aI1
aI0
ag11
aa(lp82
I4591
aI68
aI1
aI0
ag11
aa(lp83
I4616
aI69
aI0
aI0
ag15
aa(lp84
I4722
aI70
aI1
aI0
ag11
aa(lp85
I4762
aI71
aI0
aI0
ag15
aa(lp86
I4799
aI72
aI1
aI0
ag11
aa(lp87
I4812
aI73
aI1
aI0
ag11
aa(lp88
I4851
aI74
aI0
aI0
ag15
aa(lp89
I4867
aI75
aI1
aI0
ag11
aa(lp90
I5007
aI76
aI0
aI0
ag15
aa(lp91
I5033
aI77
aI0
aI0
ag15
aa(lp92
I5192
aI78
aI1
aI0
ag11
aa(lp93
I5238
aI79
aI1
aI0
ag11
aa(lp94
I5276
aI80
aI0
aI0
ag15
aa(lp95
I5342
aI81
aI0
aI0
ag15
aa(lp96
I5366
aI82
aI0
aI0
ag15
aa(lp97
I5384
aI83
aI1
aI0
ag11
aa(lp98
I5413
aI84
aI0
aI0
ag15
aa(lp99
I5599
aI85
aI0
aI0
ag15
aa(lp100
I5609
aI86
aI1
aI0
ag11
aa(lp101
I5699
aI87
aI1
aI0
ag11
aa(lp102
I5736
aI88
aI0
aI0
ag15
aa(lp103
I5762
aI89
aI1
aI0
ag11
aa(lp104
I5882
aI90
aI1
aI0
ag11
aa(lp105
I5917
aI91
aI0
aI0
ag15
aa(lp106
I5939
aI92
aI1
aI0
ag11
aa(lp107
I5959
aI93
aI1
aI0
ag11
aa(lp108
I6041
aI94
aI0
aI0
ag15
aa(lp109
I6094
aI95
aI0
aI0
ag15
aa(lp110
I6109
aI96
aI1
aI0
ag11
aa(lp111
I6216
aI97
aI1
aI0
ag11
aa(lp112
I6307
aI98
aI0
aI0
ag15
aa(lp113
I6368
aI99
aI1
aI0
ag11
aa(lp114
I6468
aI100
aI0
aI0
ag15
aa.