(lp0
(lp1
I200
aI0
aI0
aI0
acnumpy.core.multiarray
scalar
p2
(cnumpy
dtype
p3
(S'b1'
p4
I0
I1
tp5
Rp6
(I3
S'|'
p7
NNNI-1
I-1
I0
tp8
bS'\x00'
p9
tp10
Rp11
aa(lp12
I285
aI1
aI0
aI0
ag2
(g6
S'\x01'
p13
tp14
Rp15
aa(lp16
I301
aI2
aI0
aI0
ag15
aa(lp17
I311
aI3
aI0
aI0
ag15
aa(lp18
I318
aI4
aI1
aI0
ag11
aa(lp19
I329
aI5
aI0
aI0
ag15
aa(lp20
I340
aI6
aI0
aI0
ag15
aa(lp21
I390
aI7
aI0
aI0
ag15
aa(lp22
I406
aI8
aI0
aI0
ag15
aa(lp23
I423
aI9
aI1
aI0
ag11
aa(lp24
I433
aI10
aI0
aI0
ag15
aa(lp25
I443
aI11
aI0
aI0
ag15
aa(lp26
I453
aI12
aI0
aI0
ag15
aa(lp27
I464
aI13
aI0
aI0
ag15
aa(lp28
I475
aI14
aI0
aI0
ag15
aa(lp29
I519
aI15
aI0
aI0
ag15
aa(lp30
I530
aI16
aI0
aI0
ag15
aa(lp31
I543
aI17
aI0
aI0
ag15
aa(lp32
I553
aI18
aI0
aI0
ag15
aa(lp33
I562
aI19
aI1
aI0
ag11
aa(lp34
I573
aI20
aI0
aI0
ag15
aa(lp35
I584
aI21
aI0
aI0
ag15
aa(lp36
I592
aI22
aI1
aI0
ag11
aa(lp37
I601
aI23
aI0
aI0
ag15
aa(lp38
I611
aI24
aI0
aI0
ag15
aa(lp39
I660
aI25
aI0
aI0
ag15
aa(lp40
I673
aI26
aI0
aI0
ag15
aa(lp41
I689
aI27
aI0
aI0
ag15
aa(lp42
I699
aI28
aI0
aI0
ag15
aa(lp43
I711
aI29
aI0
aI0
ag15
aa(lp44
I722
aI30
aI0
aI0
ag15
aa(lp45
I732
aI31
aI0
aI0
ag15
aa(lp46
I741
aI32
aI0
aI0
ag15
aa(lp47
I824
aI33
aI0
aI0
ag15
aa(lp48
I835
aI34
aI0
aI0
ag15
aa(lp49
I845
aI35
aI0
aI0
ag15
aa(lp50
I854
aI36
aI0
aI0
ag15
aa(lp51
I865
aI37
aI0
aI0
ag15
aa(lp52
I877
aI38
aI0
aI0
ag15
aa(lp53
I888
aI39
aI0
aI0
ag15
aa(lp54
I899
aI40
aI0
aI0
ag15
aa(lp55
I909
aI41
aI0
aI0
ag15
aa(lp56
I916
aI42
aI1
aI0
ag11
aa(lp57
I934
aI43
aI0
aI0
ag15
aa(lp58
I951
aI44
aI0
aI0
ag15
aa(lp59
I963
aI45
aI0
aI0
ag15
aa(lp60
I974
aI46
aI0
aI0
ag15
aa(lp61
I984
aI47
aI0
aI0
ag15
aa(lp62
I1010
aI48
aI0
aI0
ag15
aa(lp63
I1027
aI49
aI0
aI0
ag15
aa(lp64
I1036
aI50
aI0
aI0
ag15
aa(lp65
I1046
aI51
aI0
aI0
ag15
aa(lp66
I1057
aI52
aI0
aI0
ag15
aa(lp67
I1073
aI53
aI0
aI0
ag15
aa(lp68
I1083
aI54
aI0
aI0
ag15
aa(lp69
I1094
aI55
aI0
aI0
ag15
aa(lp70
I1105
aI56
aI0
aI0
ag15
aa(lp71
I1115
aI57
aI0
aI0
ag15
aa(lp72
I1125
aI58
aI0
aI0
ag15
aa(lp73
I1130
aI59
aI1
aI0
ag11
aa(lp74
I1141
aI60
aI0
aI0
ag15
aa(lp75
I1152
aI61
aI1
aI0
ag11
aa(lp76
I1161
aI62
aI0
aI0
ag15
aa(lp77
I1172
aI63
aI0
aI0
ag15
aa(lp78
I1184
aI64
aI0
aI0
ag15
aa(lp79
I1232
aI65
aI1
aI0
ag11
aa(lp80
I1244
aI66
aI0
aI0
ag15
aa(lp81
I1255
aI67
aI0
aI0
ag15
aa(lp82
I1265
aI68
aI1
aI0
ag11
aa(lp83
I1276
aI69
aI0
aI0
ag15
aa(lp84
I1289
aI70
aI0
aI0
ag15
aa(lp85
I1336
aI71
aI1
aI0
ag11
aa(lp86
I1353
aI72
aI0
aI0
ag15
aa(lp87
I1363
aI73
aI0
aI0
ag15
aa(lp88
I1425
aI74
aI1
aI0
ag11
aa(lp89
I1437
aI75
aI0
aI0
ag15
aa(lp90
I1451
aI76
aI0
aI0
ag15
aa(lp91
I1469
aI77
aI0
aI0
ag15
aa(lp92
I1480
aI78
aI0
aI0
ag15
aa(lp93
I1496
aI79
aI1
aI0
ag11
aa(lp94
I1509
aI80
aI0
aI0
ag15
aa(lp95
I1534
aI81
aI1
aI0
ag11
aa(lp96
I1544
aI82
aI1
aI0
ag11
aa(lp97
I1558
aI83
aI1
aI0
ag11
aa(lp98
I1578
aI84
aI1
aI0
ag11
aa(lp99
I1590
aI85
aI0
aI0
ag15
aa(lp100
I1600
aI86
aI0
aI0
ag15
aa(lp101
I1610
aI87
aI0
aI0
ag15
aa(lp102
I1621
aI88
aI0
aI0
ag15
aa(lp103
I1631
aI89
aI0
aI0
ag15
aa(lp104
I1647
aI90
aI0
aI0
ag15
aa(lp105
I1670
aI91
aI1
aI0
ag11
aa(lp106
I1680
aI92
aI0
aI0
ag15
aa(lp107
I1717
aI93
aI1
aI0
ag11
aa(lp108
I1730
aI94
aI0
aI0
ag15
aa(lp109
I1744
aI95
aI1
aI0
ag11
aa(lp110
I1754
aI96
aI0
aI0
ag15
aa(lp111
I1764
aI97
aI0
aI0
ag15
aa(lp112
I1774
aI98
aI0
aI0
ag15
aa(lp113
I1785
aI99
aI0
aI0
ag15
aa(lp114
I1799
aI100
aI0
aI0
ag15
aa(lp115
I1805
aI100
aI1
aI0
ag11
aa(lp116
I1837
aI101
aI1
aI0
ag11
aa(lp117
I1867
aI102
aI0
aI0
ag15
aa(lp118
I1876
aI103
aI0
aI0
ag15
aa(lp119
I1883
aI104
aI1
aI0
ag11
aa(lp120
I1897
aI105
aI0
aI0
ag15
aa(lp121
I1909
aI106
aI1
aI0
ag11
aa(lp122
I1916
aI107
aI1
aI0
ag11
aa(lp123
I1932
aI108
aI0
aI0
ag15
aa(lp124
I1951
aI109
aI0
aI0
ag15
aa(lp125
I1961
aI110
aI0
aI0
ag15
aa(lp126
I2025
aI111
aI1
aI0
ag11
aa(lp127
I2043
aI112
aI0
aI0
ag15
aa(lp128
I2057
aI113
aI0
aI0
ag15
aa(lp129
I2111
aI114
aI1
aI0
ag11
aa(lp130
I2124
aI115
aI0
aI0
ag15
aa(lp131
I2139
aI116
aI0
aI0
ag15
aa(lp132
I2214
aI117
aI0
aI0
ag15
aa(lp133
I2232
aI118
aI0
aI0
ag15
aa(lp134
I2246
aI119
aI0
aI0
ag15
aa(lp135
I2280
aI120
aI0
aI0
ag15
aa(lp136
I2294
aI121
aI0
aI0
ag15
aa(lp137
I2329
aI122
aI1
aI0
ag11
aa(lp138
I2339
aI123
aI0
aI0
ag15
aa(lp139
I2539
aI124
aI0
aI0
ag11
aa(lp140
I2552
aI125
aI0
aI0
ag15
aa(lp141
I2572
aI126
aI0
aI0
ag15
aa(lp142
I2642
aI127
aI0
aI0
ag15
aa(lp143
I2690
aI128
aI0
aI0
ag15
aa(lp144
I2721
aI129
aI1
aI0
ag11
aa(lp145
I2738
aI130
aI0
aI0
ag15
aa(lp146
I2751
aI131
aI0
aI0
ag15
aa(lp147
I2771
aI132
aI0
aI0
ag15
aa(lp148
I2781
aI133
aI0
aI0
ag15
aa(lp149
I2807
aI134
aI1
aI0
ag11
aa(lp150
I2901
aI135
aI0
aI0
ag15
aa(lp151
I2932
aI136
aI0
aI0
ag15
aa(lp152
I2957
aI137
aI0
aI0
ag15
aa(lp153
I2983
aI138
aI0
aI0
ag15
aa(lp154
I3016
aI139
aI1
aI0
ag11
aa(lp155
I3044
aI140
aI0
aI0
ag15
aa(lp156
I3176
aI141
aI0
aI0
ag15
aa(lp157
I3195
aI142
aI0
aI0
ag15
aa(lp158
I3242
aI143
aI0
aI0
ag15
aa(lp159
I3313
aI144
aI0
aI0
ag15
aa(lp160
I3358
aI145
aI0
aI0
ag15
aa(lp161
I3376
aI146
aI0
aI0
ag15
aa(lp162
I3396
aI147
aI0
aI0
ag15
aa(lp163
I3415
aI148
aI1
aI0
ag11
aa(lp164
I3426
aI148
aI1
aI0
ag11
aa(lp165
I3445
aI149
aI0
aI0
ag15
aa(lp166
I3464
aI150
aI0
aI0
ag15
aa(lp167
I3550
aI151
aI0
aI0
ag15
aa(lp168
I3623
aI152
aI1
aI0
ag11
aa(lp169
I3688
aI153
aI0
aI0
ag15
aa(lp170
I3702
aI154
aI1
aI0
ag11
aa(lp171
I3766
aI155
aI1
aI0
ag11
aa(lp172
I3791
aI156
aI0
aI0
ag15
aa(lp173
I3801
aI157
aI1
aI0
ag11
aa(lp174
I3816
aI158
aI1
aI0
ag11
aa(lp175
I3842
aI159
aI1
aI0
ag11
aa(lp176
I3876
aI160
aI0
aI0
ag15
aa(lp177
I3929
aI161
aI0
aI0
ag15
aa(lp178
I3946
aI162
aI1
aI0
ag11
aa(lp179
I3958
aI163
aI0
aI0
ag15
aa(lp180
I3986
aI164
aI1
aI0
ag11
aa(lp181
I4045
aI165
aI0
aI0
ag15
aa(lp182
I4075
aI166
aI0
aI0
ag15
aa(lp183
I4101
aI167
aI1
aI0
ag11
aa(lp184
I4124
aI168
aI0
aI0
ag15
aa(lp185
I4131
aI169
aI1
aI0
ag11
aa(lp186
I4153
aI170
aI0
aI0
ag15
aa(lp187
I4184
aI171
aI0
aI0
ag15
aa(lp188
I4190
aI172
aI1
aI0
ag11
aa(lp189
I4331
aI173
aI1
aI0
ag11
aa(lp190
I4338
aI174
aI1
aI0
ag11
aa(lp191
I4362
aI175
aI0
aI0
ag15
aa(lp192
I4378
aI176
aI1
aI0
ag11
aa(lp193
I4411
aI177
aI0
aI0
ag15
aa(lp194
I4427
aI178
aI1
aI0
ag11
aa(lp195
I4458
aI179
aI1
aI0
ag11
aa(lp196
I4472
aI180
aI1
aI0
ag11
aa(lp197
I4544
aI181
aI1
aI0
ag11
aa(lp198
I4560
aI182
aI1
aI0
ag11
aa(lp199
I4571
aI183
aI0
aI0
ag15
aa(lp200
I4612
aI184
aI1
aI0
ag11
aa(lp201
I4622
aI185
aI1
aI0
ag11
aa(lp202
I4639
aI186
aI0
aI0
ag15
aa(lp203
I4654
aI187
aI1
aI0
ag11
aa(lp204
I4769
aI188
aI1
aI0
ag11
aa(lp205
I4808
aI189
aI0
aI0
ag15
aa(lp206
I4850
aI190
aI1
aI0
ag11
aa(lp207
I4883
aI191
aI0
aI0
ag15
aa(lp208
I4898
aI192
aI0
aI0
ag15
aa(lp209
I4906
aI193
aI1
aI0
ag11
aa(lp210
I4937
aI194
aI0
aI0
ag15
aa(lp211
I5104
aI195
aI1
aI0
ag11
aa(lp212
I5170
aI196
aI1
aI0
ag11
aa(lp213
I5189
aI197
aI1
aI0
ag11
aa(lp214
I5197
aI198
aI1
aI0
ag11
aa(lp215
I5218
aI199
aI0
aI0
ag15
aa(lp216
I5229
aI200
aI1
aI0
ag11
aa(lp217
I5272
aI201
aI0
aI0
ag15
aa(lp218
I5278
aI202
aI1
aI0
ag11
aa(lp219
I5297
aI203
aI0
aI0
ag15
aa(lp220
I5318
aI204
aI0
aI0
ag15
aa(lp221
I5324
aI205
aI1
aI0
ag11
aa(lp222
I5414
aI206
aI0
aI0
ag15
aa(lp223
I5428
aI207
aI0
aI0
ag15
aa(lp224
I5476
aI208
aI1
aI0
ag11
aa(lp225
I5484
aI209
aI1
aI0
ag11
aa(lp226
I5502
aI210
aI0
aI0
ag15
aa(lp227
I5512
aI211
aI1
aI0
ag11
aa(lp228
I5551
aI212
aI1
aI0
ag11
aa(lp229
I5564
aI213
aI0
aI0
ag15
aa(lp230
I5583
aI214
aI0
aI0
ag15
aa(lp231
I5592
aI215
aI1
aI0
ag11
aa(lp232
I5601
aI216
aI1
aI0
ag11
aa(lp233
I5619
aI217
aI0
aI0
ag15
aa(lp234
I5640
aI218
aI0
aI0
ag15
aa(lp235
I5675
aI219
aI1
aI0
ag11
aa(lp236
I5680
aI220
aI1
aI0
ag11
aa(lp237
I5696
aI221
aI0
aI0
ag15
aa(lp238
I5716
aI222
aI1
aI0
ag11
aa(lp239
I5736
aI223
aI1
aI0
ag11
aa(lp240
I5743
aI224
aI1
aI0
ag11
aa(lp241
I5818
aI225
aI0
aI0
ag15
aa(lp242
I5912
aI226
aI1
aI0
ag11
aa(lp243
I6054
aI227
aI1
aI0
ag11
aa.