(lp0
(lp1
I200
aI0
aI0
aI0
acnumpy.core.multiarray
scalar
p2
(cnumpy
dtype
p3
(S'b1'
p4
I0
I1
tp5
Rp6
(I3
S'|'
p7
NNNI-1
I-1
I0
tp8
bS'\x00'
p9
tp10
Rp11
aa(lp12
I242
aI1
aI1
aI0
ag11
aa(lp13
I310
aI2
aI1
aI0
ag11
aa(lp14
I463
aI3
aI1
aI0
ag11
aa(lp15
I545
aI4
aI1
aI0
ag11
aa(lp16
I745
aI5
aI0
aI0
ag11
aa(lp17
I779
aI6
aI1
aI0
ag11
aa(lp18
I871
aI7
aI1
aI0
ag11
aa(lp19
I1060
aI8
aI1
aI0
ag11
aa(lp20
I1260
aI9
aI0
aI0
ag11
aa(lp21
I1385
aI10
aI1
aI0
ag11
aa(lp22
I1496
aI11
aI1
aI0
ag11
aa(lp23
I1696
aI12
aI0
aI0
ag11
aa(lp24
I1729
aI13
aI1
aI0
ag11
aa(lp25
I1929
aI14
aI0
aI0
ag11
aa(lp26
I2129
aI15
aI0
aI0
ag11
aa(lp27
I2141
aI16
aI1
aI0
ag11
aa(lp28
I2174
aI17
aI1
aI0
ag11
aa(lp29
I2325
aI18
aI1
aI0
ag11
aa(lp30
I2422
aI19
aI1
aI0
ag11
aa(lp31
I2622
aI20
aI0
aI0
ag11
aa(lp32
I2822
aI21
aI0
aI0
ag11
aa(lp33
I3022
aI22
aI0
aI0
ag11
aa(lp34
I3222
aI23
aI0
aI0
ag11
aa(lp35
I3422
aI24
aI0
aI0
ag11
aa(lp36
I3585
aI25
aI1
aI0
ag11
aa(lp37
I3599
aI26
aI1
aI0
ag11
aa(lp38
I3667
aI27
aI1
aI0
ag11
aa(lp39
I3867
aI28
aI0
aI0
ag11
aa(lp40
I3999
aI29
aI0
aI0
ag2
(g6
S'\x01'
p41
tp42
Rp43
aa(lp44
I4009
aI30
aI1
aI0
ag11
aa(lp45
I4209
aI31
aI0
aI0
ag11
aa(lp46
I4332
aI32
aI1
aI0
ag11
aa(lp47
I4532
aI33
aI0
aI0
ag11
aa(lp48
I4732
aI34
aI0
aI0
ag11
aa(lp49
I4895
aI35
aI0
aI0
ag43
aa(lp50
I5091
aI36
aI1
aI0
ag11
aa(lp51
I5180
aI37
aI0
aI0
ag43
aa(lp52
I5380
aI38
aI0
aI0
ag11
aa(lp53
I5492
aI39
aI1
aI0
ag11
aa(lp54
I5599
aI40
aI1
aI0
ag11
aa(lp55
I5799
aI41
aI0
aI0
ag11
aa(lp56
I5821
aI42
aI1
aI0
ag11
aa(lp57
I6021
aI43
aI0
aI0
ag11
aa.