(lp0
(lp1
I200
aI0
aI0
aI0
acnumpy.core.multiarray
scalar
p2
(cnumpy
dtype
p3
(S'b1'
p4
I0
I1
tp5
Rp6
(I3
S'|'
p7
NNNI-1
I-1
I0
tp8
bS'\x00'
p9
tp10
Rp11
aa(lp12
I349
aI1
aI0
aI0
ag2
(g6
S'\x01'
p13
tp14
Rp15
aa(lp16
I457
aI2
aI0
aI0
ag15
aa(lp17
I500
aI3
aI1
aI0
ag11
aa(lp18
I520
aI4
aI1
aI0
ag11
aa(lp19
I563
aI5
aI1
aI0
ag11
aa(lp20
I663
aI6
aI0
aI0
ag15
aa(lp21
I685
aI7
aI1
aI0
ag11
aa(lp22
I695
aI8
aI1
aI0
ag11
aa(lp23
I710
aI9
aI1
aI0
ag11
aa(lp24
I718
aI10
aI1
aI0
ag11
aa(lp25
I883
aI11
aI1
aI0
ag11
aa(lp26
I950
aI12
aI1
aI0
ag11
aa(lp27
I987
aI13
aI1
aI0
ag11
aa(lp28
I1152
aI14
aI0
aI0
ag15
aa(lp29
I1170
aI15
aI1
aI0
ag11
aa(lp30
I1260
aI16
aI0
aI0
ag15
aa(lp31
I1329
aI17
aI0
aI0
ag15
aa(lp32
I1439
aI18
aI0
aI0
ag15
aa(lp33
I1608
aI19
aI1
aI0
ag11
aa(lp34
I1636
aI20
aI1
aI0
ag11
aa(lp35
I1775
aI21
aI1
aI0
ag11
aa(lp36
I1910
aI22
aI1
aI0
ag11
aa(lp37
I1957
aI23
aI0
aI0
ag15
aa(lp38
I2043
aI24
aI1
aI0
ag15
aa(lp39
I2243
aI25
aI0
aI0
ag11
aa(lp40
I2293
aI26
aI0
aI0
ag15
aa(lp41
I2493
aI27
aI0
aI0
ag11
aa(lp42
I2516
aI28
aI0
aI0
ag15
aa(lp43
I2541
aI29
aI1
aI0
ag11
aa(lp44
I2554
aI30
aI1
aI0
ag11
aa(lp45
I2576
aI31
aI0
aI0
ag15
aa(lp46
I2594
aI32
aI1
aI0
ag11
aa(lp47
I2794
aI33
aI0
aI0
ag11
aa(lp48
I2994
aI34
aI0
aI0
ag11
aa(lp49
I3094
aI35
aI0
aI0
ag15
aa(lp50
I3294
aI36
aI0
aI0
ag11
aa(lp51
I3358
aI37
aI1
aI0
ag11
aa(lp52
I3445
aI38
aI1
aI0
ag11
aa(lp53
I3616
aI39
aI0
aI0
ag15
aa(lp54
I3677
aI40
aI1
aI0
ag11
aa(lp55
I3799
aI41
aI0
aI0
ag15
aa(lp56
I3874
aI42
aI0
aI0
ag15
aa(lp57
I4074
aI43
aI0
aI0
ag11
aa(lp58
I4210
aI44
aI1
aI0
ag11
aa(lp59
I4227
aI45
aI1
aI0
ag11
aa(lp60
I4274
aI46
aI0
aI0
ag15
aa(lp61
I4474
aI47
aI0
aI0
ag11
aa(lp62
I4559
aI48
aI0
aI0
ag15
aa(lp63
I4614
aI49
aI1
aI0
ag11
aa(lp64
I4715
aI50
aI0
aI0
ag15
aa(lp65
I4731
aI51
aI1
aI0
ag11
aa(lp66
I4871
aI52
aI0
aI0
ag15
aa(lp67
I4928
aI53
aI0
aI0
ag15
aa(lp68
I4947
aI54
aI0
aI0
ag15
aa(lp69
I5006
aI55
aI1
aI0
ag11
aa(lp70
I5151
aI56
aI0
aI0
ag15
aa(lp71
I5225
aI57
aI0
aI0
ag15
aa(lp72
I5328
aI58
aI0
aI0
ag15
aa(lp73
I5340
aI59
aI1
aI0
ag11
aa(lp74
I5366
aI60
aI0
aI0
ag15
aa(lp75
I5402
aI61
aI0
aI0
ag15
aa(lp76
I5504
aI62
aI1
aI0
ag11
aa(lp77
I5595
aI63
aI1
aI0
ag11
aa(lp78
I5679
aI64
aI0
aI0
ag15
aa(lp79
I5686
aI65
aI1
aI0
ag11
aa(lp80
I5705
aI66
aI1
aI0
ag11
aa(lp81
I5743
aI67
aI1
aI0
ag11
aa(lp82
I5796
aI68
aI1
aI0
ag11
aa(lp83
I5803
aI69
aI1
aI0
ag11
aa(lp84
I5862
aI70
aI0
aI0
ag15
aa(lp85
I5868
aI71
aI1
aI0
ag11
aa(lp86
I5883
aI72
aI1
aI0
ag11
aa(lp87
I6083
aI73
aI0
aI0
ag11
aa(lp88
I6136
aI74
aI1
aI0
ag11
aa(lp89
I6185
aI75
aI1
aI0
ag11
aa(lp90
I6217
aI76
aI1
aI0
ag11
aa(lp91
I6325
aI77
aI1
aI0
ag11
aa(lp92
I6336
aI78
aI1
aI0
ag11
aa(lp93
I6500
aI79
aI1
aI0
ag11
aa(lp94
I6583
aI80
aI0
aI0
ag15
aa(lp95
I6593
aI81
aI1
aI0
ag11
aa(lp96
I6640
aI82
aI0
aI0
ag15
aa(lp97
I6679
aI83
aI1
aI0
ag11
aa(lp98
I6686
aI84
aI1
aI0
ag11
aa(lp99
I6732
aI85
aI0
aI0
ag15
aa(lp100
I6767
aI86
aI1
aI0
ag11
aa(lp101
I6799
aI87
aI1
aI0
ag11
aa(lp102
I6999
aI88
aI0
aI0
ag11
aa(lp103
I7108
aI89
aI1
aI0
ag11
aa(lp104
I7209
aI90
aI0
aI0
ag15
aa(lp105
I7409
aI91
aI0
aI0
ag11
aa(lp106
I7430
aI92
aI1
aI0
ag11
aa(lp107
I7525
aI93
aI0
aI0
ag15
aa(lp108
I7621
aI94
aI1
aI0
ag11
aa(lp109
I7646
aI95
aI1
aI0
ag11
aa(lp110
I7689
aI96
aI1
aI0
ag11
aa(lp111
I7722
aI97
aI0
aI0
ag15
aa(lp112
I7811
aI98
aI0
aI0
ag15
aa(lp113
I7879
aI99
aI1
aI0
ag11
aa(lp114
I7947
aI100
aI1
aI0
ag11
aa.