(lp0
(lp1
I180
aI0
aI1
aI0
acnumpy.core.multiarray
scalar
p2
(cnumpy
dtype
p3
(S'b1'
p4
I0
I1
tp5
Rp6
(I3
S'|'
p7
NNNI-1
I-1
I0
tp8
bS'\x00'
p9
tp10
Rp11
aa(lp12
I248
aI1
aI0
aI0
ag2
(g6
S'\x01'
p13
tp14
Rp15
aa(lp16
I255
aI2
aI1
aI0
ag11
aa(lp17
I267
aI3
aI0
aI0
ag15
aa(lp18
I277
aI4
aI0
aI0
ag15
aa(lp19
I288
aI5
aI0
aI0
ag15
aa(lp20
I294
aI6
aI1
aI0
ag11
aa(lp21
I306
aI7
aI0
aI0
ag15
aa(lp22
I317
aI8
aI0
aI0
ag15
aa(lp23
I329
aI9
aI0
aI0
ag15
aa(lp24
I336
aI10
aI1
aI0
ag11
aa(lp25
I353
aI11
aI0
aI0
ag15
aa(lp26
I360
aI12
aI1
aI0
ag11
aa(lp27
I380
aI13
aI1
aI0
ag11
aa(lp28
I397
aI14
aI0
aI0
ag15
aa(lp29
I417
aI15
aI1
aI0
ag11
aa(lp30
I436
aI16
aI0
aI0
ag15
aa(lp31
I450
aI17
aI0
aI0
ag15
aa(lp32
I637
aI18
aI1
aI0
ag11
aa(lp33
I649
aI19
aI1
aI0
ag11
aa(lp34
I661
aI20
aI0
aI0
ag15
aa(lp35
I677
aI21
aI1
aI0
ag11
aa(lp36
I692
aI22
aI0
aI0
ag15
aa(lp37
I704
aI23
aI0
aI0
ag15
aa(lp38
I722
aI24
aI0
aI0
ag15
aa(lp39
I732
aI25
aI1
aI0
ag11
aa(lp40
I738
aI26
aI1
aI0
ag11
aa(lp41
I818
aI27
aI1
aI0
ag11
aa(lp42
I911
aI28
aI0
aI0
ag15
aa(lp43
I922
aI29
aI0
aI0
ag15
aa(lp44
I936
aI30
aI1
aI0
ag11
aa(lp45
I946
aI31
aI1
aI0
ag11
aa(lp46
I960
aI32
aI0
aI0
ag15
aa(lp47
I973
aI33
aI0
aI0
ag15
aa(lp48
I1039
aI34
aI0
aI0
ag15
aa(lp49
I1044
aI35
aI1
aI0
ag11
aa(lp50
I1050
aI36
aI1
aI0
ag11
aa(lp51
I1119
aI37
aI0
aI0
ag15
aa(lp52
I1130
aI38
aI0
aI0
ag15
aa(lp53
I1139
aI39
aI1
aI0
ag11
aa(lp54
I1150
aI40
aI1
aI0
ag11
aa(lp55
I1164
aI41
aI0
aI0
ag15
aa(lp56
I1175
aI42
aI0
aI0
ag15
aa(lp57
I1183
aI43
aI1
aI0
ag11
aa(lp58
I1193
aI44
aI0
aI0
ag15
aa(lp59
I1204
aI45
aI0
aI0
ag15
aa(lp60
I1217
aI46
aI0
aI0
ag15
aa(lp61
I1251
aI47
aI1
aI0
ag11
aa(lp62
I1262
aI48
aI0
aI0
ag15
aa(lp63
I1271
aI49
aI1
aI0
ag11
aa(lp64
I1282
aI50
aI1
aI0
ag11
aa(lp65
I1351
aI51
aI0
aI0
ag15
aa(lp66
I1366
aI52
aI0
aI0
ag15
aa(lp67
I1378
aI53
aI1
aI0
ag11
aa(lp68
I1383
aI54
aI1
aI0
ag11
aa(lp69
I1393
aI55
aI0
aI0
ag15
aa(lp70
I1400
aI56
aI1
aI0
ag11
aa(lp71
I1416
aI57
aI0
aI0
ag15
aa(lp72
I1430
aI58
aI0
aI0
ag15
aa(lp73
I1441
aI59
aI1
aI0
ag11
aa(lp74
I1450
aI60
aI1
aI0
ag11
aa(lp75
I1476
aI61
aI1
aI0
ag11
aa(lp76
I1525
aI62
aI1
aI0
ag11
aa(lp77
I1548
aI63
aI1
aI0
ag11
aa(lp78
I1606
aI64
aI1
aI0
ag11
aa(lp79
I1620
aI65
aI1
aI0
ag11
aa(lp80
I1633
aI66
aI0
aI0
ag15
aa(lp81
I1640
aI67
aI1
aI0
ag11
aa(lp82
I1654
aI68
aI0
aI0
ag15
aa(lp83
I1669
aI69
aI0
aI0
ag15
aa(lp84
I1677
aI70
aI1
aI0
ag11
aa(lp85
I1682
aI71
aI1
aI0
ag11
aa(lp86
I1695
aI72
aI0
aI0
ag15
aa(lp87
I1717
aI73
aI1
aI0
ag11
aa(lp88
I1722
aI74
aI1
aI0
ag11
aa(lp89
I1741
aI75
aI1
aI0
ag11
aa(lp90
I1760
aI76
aI1
aI0
ag11
aa(lp91
I1779
aI77
aI0
aI0
ag15
aa(lp92
I1789
aI78
aI0
aI0
ag15
aa(lp93
I1801
aI79
aI0
aI0
ag15
aa(lp94
I1815
aI80
aI1
aI0
ag11
aa(lp95
I1830
aI81
aI0
aI0
ag15
aa(lp96
I1843
aI82
aI0
aI0
ag15
aa(lp97
I1873
aI83
aI1
aI0
ag11
aa(lp98
I1892
aI84
aI1
aI0
ag11
aa(lp99
I1906
aI85
aI0
aI0
ag15
aa(lp100
I1922
aI86
aI0
aI0
ag15
aa(lp101
I1934
aI87
aI0
aI0
ag15
aa(lp102
I1946
aI88
aI0
aI0
ag15
aa(lp103
I1957
aI89
aI1
aI0
ag11
aa(lp104
I1975
aI90
aI0
aI0
ag15
aa(lp105
I1987
aI91
aI0
aI0
ag15
aa(lp106
I2001
aI92
aI0
aI0
ag15
aa(lp107
I2007
aI93
aI1
aI0
ag11
aa(lp108
I2030
aI94
aI1
aI0
ag11
aa(lp109
I2074
aI95
aI1
aI0
ag11
aa(lp110
I2088
aI96
aI1
aI0
ag11
aa(lp111
I2099
aI97
aI0
aI0
ag15
aa(lp112
I2111
aI98
aI0
aI0
ag15
aa(lp113
I2126
aI99
aI0
aI0
ag15
aa(lp114
I2140
aI100
aI0
aI0
ag15
aa(lp115
I2178
aI101
aI0
aI0
ag15
aa(lp116
I2189
aI102
aI0
aI0
ag15
aa(lp117
I2200
aI103
aI0
aI0
ag15
aa(lp118
I2214
aI104
aI0
aI0
ag15
aa(lp119
I2226
aI105
aI0
aI0
ag15
aa(lp120
I2261
aI106
aI0
aI0
ag15
aa(lp121
I2277
aI107
aI0
aI0
ag15
aa(lp122
I2290
aI108
aI1
aI0
ag11
aa(lp123
I2312
aI109
aI1
aI0
ag11
aa(lp124
I2325
aI110
aI0
aI0
ag15
aa(lp125
I2339
aI111
aI0
aI0
ag15
aa(lp126
I2349
aI112
aI1
aI0
ag11
aa(lp127
I2362
aI113
aI0
aI0
ag15
aa(lp128
I2376
aI114
aI0
aI0
ag15
aa(lp129
I2390
aI115
aI1
aI0
ag11
aa(lp130
I2396
aI116
aI1
aI0
ag11
aa(lp131
I2408
aI117
aI1
aI0
ag11
aa(lp132
I2419
aI118
aI1
aI0
ag11
aa(lp133
I2433
aI119
aI0
aI0
ag15
aa(lp134
I2491
aI120
aI1
aI0
ag11
aa(lp135
I2503
aI121
aI0
aI0
ag15
aa(lp136
I2516
aI122
aI1
aI0
ag11
aa(lp137
I2529
aI123
aI1
aI0
ag11
aa(lp138
I2623
aI124
aI1
aI0
ag11
aa(lp139
I2629
aI125
aI1
aI0
ag11
aa(lp140
I2635
aI126
aI1
aI0
ag11
aa(lp141
I2653
aI127
aI0
aI0
ag15
aa(lp142
I2668
aI128
aI0
aI0
ag15
aa(lp143
I2678
aI129
aI1
aI0
ag11
aa(lp144
I2692
aI130
aI0
aI0
ag15
aa(lp145
I2713
aI131
aI0
aI0
ag15
aa(lp146
I2726
aI132
aI0
aI0
ag15
aa(lp147
I2750
aI133
aI0
aI0
ag15
aa(lp148
I2762
aI134
aI1
aI0
ag11
aa(lp149
I2783
aI135
aI1
aI0
ag11
aa(lp150
I2794
aI136
aI0
aI0
ag15
aa(lp151
I2800
aI137
aI1
aI0
ag11
aa(lp152
I2832
aI138
aI1
aI0
ag11
aa(lp153
I2847
aI139
aI0
aI0
ag15
aa(lp154
I2867
aI140
aI1
aI0
ag11
aa(lp155
I2874
aI141
aI1
aI0
ag11
aa(lp156
I2890
aI142
aI1
aI0
ag11
aa(lp157
I2910
aI143
aI0
aI0
ag15
aa(lp158
I2916
aI144
aI1
aI0
ag11
aa(lp159
I2922
aI145
aI1
aI0
ag11
aa(lp160
I2938
aI146
aI0
aI0
ag15
aa(lp161
I2949
aI147
aI0
aI0
ag15
aa(lp162
I2964
aI148
aI0
aI0
ag15
aa(lp163
I3164
aI149
aI0
aI0
ag11
aa(lp164
I3170
aI150
aI1
aI0
ag11
aa(lp165
I3178
aI151
aI1
aI0
ag11
aa(lp166
I3196
aI152
aI0
aI0
ag15
aa(lp167
I3208
aI153
aI0
aI0
ag15
aa(lp168
I3232
aI154
aI0
aI0
ag15
aa(lp169
I3253
aI155
aI1
aI0
ag11
aa(lp170
I3266
aI156
aI1
aI0
ag11
aa(lp171
I3283
aI157
aI1
aI0
ag11
aa(lp172
I3298
aI158
aI1
aI0
ag11
aa(lp173
I3308
aI159
aI1
aI0
ag11
aa(lp174
I3332
aI160
aI1
aI0
ag11
aa(lp175
I3344
aI161
aI1
aI0
ag11
aa(lp176
I3349
aI162
aI1
aI0
ag11
aa(lp177
I3368
aI163
aI1
aI0
ag11
aa(lp178
I3380
aI164
aI1
aI0
ag11
aa(lp179
I3395
aI165
aI1
aI0
ag11
aa(lp180
I3488
aI166
aI0
aI0
ag15
aa(lp181
I3498
aI167
aI1
aI0
ag11
aa(lp182
I3515
aI168
aI0
aI0
ag15
aa(lp183
I3537
aI169
aI1
aI0
ag11
aa(lp184
I3554
aI170
aI0
aI0
ag15
aa(lp185
I3568
aI171
aI1
aI0
ag11
aa(lp186
I3588
aI172
aI0
aI0
ag15
aa(lp187
I3598
aI173
aI0
aI0
ag15
aa(lp188
I3613
aI174
aI1
aI0
ag11
aa(lp189
I3630
aI175
aI1
aI0
ag11
aa(lp190
I3642
aI176
aI1
aI0
ag11
aa(lp191
I3656
aI177
aI1
aI0
ag11
aa(lp192
I3670
aI178
aI0
aI0
ag15
aa(lp193
I3688
aI179
aI0
aI0
ag15
aa(lp194
I3695
aI180
aI1
aI0
ag11
aa(lp195
I3711
aI181
aI0
aI0
ag15
aa(lp196
I3724
aI182
aI1
aI0
ag11
aa(lp197
I3748
aI183
aI1
aI0
ag11
aa(lp198
I3767
aI184
aI1
aI0
ag11
aa(lp199
I3777
aI185
aI1
aI0
ag11
aa(lp200
I3844
aI186
aI0
aI0
ag15
aa(lp201
I3858
aI187
aI0
aI0
ag15
aa(lp202
I3871
aI188
aI0
aI0
ag15
aa(lp203
I3884
aI189
aI0
aI0
ag15
aa(lp204
I3897
aI190
aI1
aI0
ag11
aa(lp205
I3916
aI191
aI1
aI0
ag11
aa(lp206
I3922
aI192
aI1
aI0
ag11
aa(lp207
I3944
aI193
aI0
aI0
ag15
aa(lp208
I3950
aI194
aI1
aI0
ag11
aa(lp209
I3983
aI195
aI0
aI0
ag15
aa(lp210
I4000
aI196
aI0
aI0
ag15
aa(lp211
I4010
aI197
aI0
aI0
ag15
aa(lp212
I4052
aI198
aI0
aI0
ag15
aa(lp213
I4057
aI199
aI1
aI0
ag11
aa(lp214
I4063
aI200
aI1
aI0
ag11
aa(lp215
I4088
aI201
aI1
aI0
ag11
aa(lp216
I4108
aI202
aI1
aI0
ag11
aa(lp217
I4132
aI203
aI1
aI0
ag11
aa(lp218
I4141
aI204
aI1
aI0
ag11
aa(lp219
I4146
aI205
aI1
aI0
ag11
aa(lp220
I4158
aI206
aI1
aI0
ag11
aa(lp221
I4219
aI207
aI1
aI0
ag11
aa(lp222
I4230
aI208
aI0
aI0
ag15
aa(lp223
I4244
aI209
aI0
aI0
ag15
aa(lp224
I4260
aI210
aI0
aI0
ag15
aa(lp225
I4287
aI211
aI1
aI0
ag11
aa(lp226
I4296
aI212
aI1
aI0
ag11
aa(lp227
I4319
aI213
aI1
aI0
ag11
aa(lp228
I4331
aI214
aI1
aI0
ag11
aa(lp229
I4366
aI215
aI1
aI0
ag11
aa(lp230
I4399
aI216
aI1
aI0
ag11
aa(lp231
I4420
aI217
aI0
aI0
ag15
aa(lp232
I4475
aI218
aI1
aI0
ag11
aa(lp233
I4513
aI219
aI0
aI0
ag15
aa(lp234
I4521
aI220
aI1
aI0
ag11
aa(lp235
I4527
aI221
aI1
aI0
ag11
aa(lp236
I4543
aI222
aI1
aI0
ag11
aa(lp237
I4580
aI223
aI1
aI0
ag11
aa(lp238
I4589
aI224
aI1
aI0
ag11
aa(lp239
I4597
aI225
aI1
aI0
ag11
aa(lp240
I4604
aI226
aI1
aI0
ag11
aa(lp241
I4628
aI227
aI1
aI0
ag11
aa(lp242
I4641
aI228
aI1
aI0
ag11
aa(lp243
I4658
aI229
aI0
aI0
ag15
aa(lp244
I4670
aI230
aI1
aI0
ag11
aa(lp245
I4683
aI231
aI0
aI0
ag15
aa(lp246
I4694
aI232
aI0
aI0
ag15
aa(lp247
I4726
aI233
aI1
aI0
ag11
aa(lp248
I4732
aI234
aI1
aI0
ag11
aa(lp249
I4747
aI235
aI0
aI0
ag15
aa(lp250
I4754
aI236
aI1
aI0
ag11
aa(lp251
I4780
aI237
aI1
aI0
ag11
aa(lp252
I4811
aI238
aI0
aI0
ag15
aa(lp253
I4821
aI239
aI0
aI0
ag15
aa(lp254
I4837
aI240
aI1
aI0
ag11
aa(lp255
I4854
aI241
aI0
aI0
ag15
aa(lp256
I4871
aI242
aI0
aI0
ag15
aa(lp257
I4876
aI243
aI1
aI0
ag11
aa(lp258
I4895
aI244
aI1
aI0
ag11
aa(lp259
I4908
aI245
aI1
aI0
ag11
aa(lp260
I4913
aI246
aI1
aI0
ag11
aa(lp261
I4929
aI247
aI0
aI0
ag15
aa(lp262
I4935
aI248
aI1
aI0
ag11
aa(lp263
I4946
aI249
aI1
aI0
ag11
aa(lp264
I4971
aI250
aI0
aI0
ag15
aa(lp265
I4987
aI251
aI0
aI0
ag15
aa(lp266
I5002
aI252
aI1
aI0
ag11
aa(lp267
I5021
aI253
aI0
aI0
ag15
aa(lp268
I5078
aI254
aI0
aI0
ag15
aa(lp269
I5140
aI255
aI1
aI0
ag11
aa(lp270
I5186
aI256
aI1
aI0
ag11
aa(lp271
I5204
aI257
aI0
aI0
ag15
aa(lp272
I5209
aI258
aI1
aI0
ag11
aa(lp273
I5226
aI259
aI0
aI0
ag15
aa(lp274
I5254
aI260
aI1
aI0
ag11
aa(lp275
I5261
aI261
aI1
aI0
ag11
aa(lp276
I5316
aI262
aI1
aI0
ag11
aa(lp277
I5343
aI263
aI0
aI0
ag15
aa(lp278
I5356
aI264
aI1
aI0
ag11
aa(lp279
I5369
aI265
aI1
aI0
ag11
aa(lp280
I5385
aI266
aI0
aI0
ag15
aa(lp281
I5461
aI267
aI1
aI0
ag11
aa(lp282
I5467
aI268
aI1
aI0
ag11
aa(lp283
I5484
aI269
aI0
aI0
ag15
aa(lp284
I5499
aI270
aI1
aI0
ag11
aa(lp285
I5525
aI271
aI0
aI0
ag15
aa(lp286
I5550
aI272
aI1
aI0
ag11
aa(lp287
I5574
aI273
aI1
aI0
ag11
aa(lp288
I5585
aI274
aI1
aI0
ag11
aa(lp289
I5606
aI275
aI1
aI0
ag11
aa(lp290
I5635
aI276
aI1
aI0
ag11
aa(lp291
I5658
aI277
aI1
aI0
ag11
aa(lp292
I5669
aI278
aI0
aI0
ag15
aa(lp293
I5680
aI279
aI0
aI0
ag15
aa(lp294
I5687
aI280
aI1
aI0
ag11
aa(lp295
I5694
aI281
aI1
aI0
ag11
aa(lp296
I5708
aI282
aI0
aI0
ag15
aa(lp297
I5721
aI283
aI1
aI0
ag11
aa(lp298
I5733
aI284
aI0
aI0
ag15
aa(lp299
I5744
aI285
aI1
aI0
ag11
aa(lp300
I5764
aI286
aI1
aI0
ag11
aa(lp301
I5771
aI287
aI1
aI0
ag11
aa(lp302
I5781
aI288
aI1
aI0
ag11
aa(lp303
I5802
aI289
aI1
aI0
ag11
aa(lp304
I5819
aI290
aI0
aI0
ag15
aa(lp305
I5836
aI291
aI0
aI0
ag15
aa(lp306
I5867
aI292
aI1
aI0
ag11
aa(lp307
I5897
aI293
aI1
aI0
ag11
aa(lp308
I5905
aI294
aI1
aI0
ag11
aa(lp309
I5924
aI295
aI0
aI0
ag15
aa(lp310
I5931
aI296
aI1
aI0
ag11
aa(lp311
I5974
aI297
aI1
aI0
ag11
aa(lp312
I5988
aI298
aI0
aI0
ag15
aa(lp313
I6000
aI299
aI0
aI0
ag15
aa.