(lp0
(lp1
I199
aI0
aI1
aI0
acnumpy.core.multiarray
scalar
p2
(cnumpy
dtype
p3
(S'b1'
p4
I0
I1
tp5
Rp6
(I3
S'|'
p7
NNNI-1
I-1
I0
tp8
bS'\x00'
p9
tp10
Rp11
aa(lp12
I281
aI1
aI1
aI0
ag11
aa(lp13
I294
aI2
aI0
aI0
ag2
(g6
S'\x01'
p14
tp15
Rp16
aa(lp17
I301
aI3
aI1
aI0
ag11
aa(lp18
I341
aI4
aI0
aI0
ag16
aa(lp19
I348
aI5
aI1
aI0
ag11
aa(lp20
I359
aI6
aI0
aI0
ag16
aa(lp21
I369
aI7
aI0
aI0
ag16
aa(lp22
I375
aI8
aI1
aI0
ag11
aa(lp23
I382
aI9
aI1
aI0
ag11
aa(lp24
I424
aI10
aI0
aI0
ag16
aa(lp25
I441
aI11
aI0
aI0
ag16
aa(lp26
I478
aI12
aI0
aI0
ag16
aa(lp27
I661
aI13
aI0
aI0
ag16
aa(lp28
I718
aI14
aI1
aI0
ag11
aa(lp29
I729
aI15
aI0
aI0
ag16
aa(lp30
I785
aI16
aI1
aI0
ag11
aa(lp31
I790
aI17
aI1
aI0
ag11
aa(lp32
I824
aI18
aI0
aI0
ag16
aa(lp33
I843
aI19
aI0
aI0
ag16
aa(lp34
I857
aI20
aI0
aI0
ag16
aa(lp35
I865
aI21
aI1
aI0
ag11
aa(lp36
I877
aI22
aI0
aI0
ag16
aa(lp37
I887
aI23
aI0
aI0
ag16
aa(lp38
I902
aI24
aI1
aI0
ag11
aa(lp39
I916
aI25
aI0
aI0
ag16
aa(lp40
I929
aI26
aI1
aI0
ag11
aa(lp41
I940
aI27
aI0
aI0
ag16
aa(lp42
I953
aI28
aI0
aI0
ag16
aa(lp43
I965
aI29
aI0
aI0
ag16
aa(lp44
I975
aI30
aI0
aI0
ag16
aa(lp45
I986
aI31
aI0
aI0
ag16
aa(lp46
I1004
aI32
aI1
aI0
ag11
aa(lp47
I1014
aI33
aI0
aI0
ag16
aa(lp48
I1028
aI34
aI0
aI0
ag16
aa(lp49
I1059
aI35
aI1
aI0
ag11
aa(lp50
I1072
aI36
aI0
aI0
ag16
aa(lp51
I1081
aI37
aI0
aI0
ag16
aa(lp52
I1092
aI38
aI0
aI0
ag16
aa(lp53
I1102
aI39
aI1
aI0
ag11
aa(lp54
I1114
aI40
aI1
aI0
ag11
aa(lp55
I1146
aI41
aI1
aI0
ag11
aa(lp56
I1161
aI42
aI0
aI0
ag16
aa(lp57
I1210
aI43
aI1
aI0
ag11
aa(lp58
I1233
aI44
aI1
aI0
ag11
aa(lp59
I1295
aI45
aI0
aI0
ag16
aa(lp60
I1324
aI46
aI0
aI0
ag16
aa(lp61
I1337
aI47
aI1
aI0
ag11
aa(lp62
I1357
aI48
aI0
aI0
ag16
aa(lp63
I1375
aI49
aI1
aI0
ag11
aa(lp64
I1408
aI50
aI1
aI0
ag11
aa(lp65
I1415
aI51
aI1
aI0
ag11
aa(lp66
I1422
aI52
aI1
aI0
ag11
aa(lp67
I1445
aI53
aI1
aI0
ag11
aa(lp68
I1467
aI54
aI1
aI0
ag11
aa(lp69
I1479
aI55
aI1
aI0
ag11
aa(lp70
I1491
aI56
aI1
aI0
ag11
aa(lp71
I1501
aI57
aI1
aI0
ag11
aa(lp72
I1538
aI58
aI1
aI0
ag11
aa(lp73
I1620
aI59
aI1
aI0
ag11
aa(lp74
I1642
aI60
aI1
aI0
ag11
aa(lp75
I1658
aI61
aI0
aI0
ag16
aa(lp76
I1673
aI62
aI0
aI0
ag16
aa(lp77
I1699
aI63
aI0
aI0
ag16
aa(lp78
I1769
aI64
aI0
aI0
ag16
aa(lp79
I1783
aI65
aI1
aI0
ag11
aa(lp80
I1789
aI66
aI1
aI0
ag11
aa(lp81
I1801
aI67
aI0
aI0
ag16
aa(lp82
I1816
aI68
aI1
aI0
ag11
aa(lp83
I1829
aI69
aI0
aI0
ag16
aa(lp84
I1913
aI70
aI1
aI0
ag11
aa(lp85
I1924
aI71
aI0
aI0
ag16
aa(lp86
I1939
aI72
aI0
aI0
ag16
aa(lp87
I1947
aI73
aI1
aI0
ag11
aa(lp88
I1970
aI74
aI1
aI0
ag11
aa(lp89
I1988
aI75
aI1
aI0
ag11
aa(lp90
I1994
aI76
aI1
aI0
ag11
aa(lp91
I2000
aI77
aI1
aI0
ag11
aa(lp92
I2012
aI78
aI0
aI0
ag16
aa(lp93
I2018
aI79
aI1
aI0
ag11
aa(lp94
I2035
aI80
aI0
aI0
ag16
aa(lp95
I2048
aI81
aI0
aI0
ag16
aa(lp96
I2062
aI82
aI0
aI0
ag16
aa(lp97
I2073
aI83
aI1
aI0
ag11
aa(lp98
I2088
aI84
aI0
aI0
ag16
aa(lp99
I2094
aI85
aI1
aI0
ag11
aa(lp100
I2117
aI86
aI0
aI0
ag16
aa(lp101
I2145
aI87
aI1
aI0
ag11
aa(lp102
I2151
aI88
aI1
aI0
ag11
aa(lp103
I2209
aI89
aI1
aI0
ag11
aa(lp104
I2220
aI90
aI1
aI0
ag11
aa(lp105
I2234
aI91
aI0
aI0
ag16
aa(lp106
I2254
aI92
aI0
aI0
ag16
aa(lp107
I2278
aI93
aI0
aI0
ag16
aa(lp108
I2300
aI94
aI0
aI0
ag16
aa(lp109
I2329
aI95
aI1
aI0
ag11
aa(lp110
I2338
aI96
aI1
aI0
ag11
aa(lp111
I2365
aI97
aI0
aI0
ag16
aa(lp112
I2388
aI98
aI1
aI0
ag11
aa(lp113
I2401
aI99
aI0
aI0
ag16
aa(lp114
I2414
aI100
aI0
aI0
ag16
aa(lp115
I2427
aI101
aI1
aI0
ag11
aa(lp116
I2463
aI102
aI0
aI0
ag16
aa(lp117
I2472
aI103
aI1
aI0
ag11
aa(lp118
I2484
aI104
aI0
aI0
ag16
aa(lp119
I2490
aI105
aI1
aI0
ag11
aa(lp120
I2514
aI106
aI0
aI0
ag16
aa(lp121
I2535
aI107
aI0
aI0
ag16
aa(lp122
I2559
aI108
aI1
aI0
ag11
aa(lp123
I2606
aI109
aI1
aI0
ag11
aa(lp124
I2612
aI110
aI1
aI0
ag11
aa(lp125
I2630
aI111
aI0
aI0
ag16
aa(lp126
I2655
aI112
aI1
aI0
ag11
aa(lp127
I2690
aI113
aI1
aI0
ag11
aa(lp128
I2708
aI114
aI0
aI0
ag16
aa(lp129
I2731
aI115
aI0
aI0
ag16
aa(lp130
I2761
aI116
aI1
aI0
ag11
aa(lp131
I2836
aI117
aI1
aI0
ag11
aa(lp132
I2852
aI118
aI0
aI0
ag16
aa(lp133
I2869
aI119
aI0
aI0
ag16
aa(lp134
I2894
aI120
aI0
aI0
ag16
aa(lp135
I2906
aI121
aI0
aI0
ag16
aa(lp136
I2917
aI122
aI1
aI0
ag11
aa(lp137
I2932
aI123
aI0
aI0
ag16
aa(lp138
I2947
aI124
aI1
aI0
ag11
aa(lp139
I2972
aI125
aI1
aI0
ag11
aa(lp140
I2982
aI126
aI1
aI0
ag11
aa(lp141
I2987
aI127
aI1
aI0
ag11
aa(lp142
I3004
aI128
aI1
aI0
ag11
aa(lp143
I3023
aI129
aI1
aI0
ag11
aa(lp144
I3043
aI130
aI0
aI0
ag16
aa(lp145
I3075
aI131
aI1
aI0
ag11
aa(lp146
I3096
aI132
aI1
aI0
ag11
aa(lp147
I3123
aI133
aI1
aI0
ag11
aa(lp148
I3131
aI134
aI1
aI0
ag11
aa(lp149
I3145
aI135
aI0
aI0
ag16
aa(lp150
I3158
aI136
aI0
aI0
ag16
aa(lp151
I3171
aI137
aI0
aI0
ag16
aa(lp152
I3201
aI138
aI1
aI0
ag11
aa(lp153
I3243
aI139
aI0
aI0
ag16
aa(lp154
I3249
aI140
aI1
aI0
ag11
aa(lp155
I3266
aI141
aI0
aI0
ag16
aa(lp156
I3285
aI142
aI0
aI0
ag16
aa(lp157
I3310
aI143
aI1
aI0
ag11
aa(lp158
I3318
aI144
aI1
aI0
ag11
aa(lp159
I3341
aI145
aI1
aI0
ag11
aa(lp160
I3346
aI146
aI1
aI0
ag11
aa(lp161
I3359
aI147
aI0
aI0
ag16
aa(lp162
I3389
aI148
aI1
aI0
ag11
aa(lp163
I3417
aI149
aI1
aI0
ag11
aa(lp164
I3434
aI150
aI1
aI0
ag11
aa(lp165
I3458
aI151
aI0
aI0
ag16
aa(lp166
I3479
aI152
aI0
aI0
ag16
aa(lp167
I3498
aI153
aI1
aI0
ag11
aa(lp168
I3513
aI154
aI0
aI0
ag16
aa(lp169
I3522
aI155
aI1
aI0
ag11
aa(lp170
I3531
aI156
aI1
aI0
ag11
aa(lp171
I3539
aI157
aI1
aI0
ag11
aa(lp172
I3549
aI158
aI1
aI0
ag11
aa(lp173
I3564
aI159
aI0
aI0
ag16
aa(lp174
I3628
aI160
aI0
aI0
ag16
aa(lp175
I3641
aI161
aI1
aI0
ag11
aa(lp176
I3657
aI162
aI1
aI0
ag11
aa(lp177
I3671
aI163
aI0
aI0
ag16
aa(lp178
I3682
aI164
aI0
aI0
ag16
aa(lp179
I3687
aI165
aI1
aI0
ag11
aa(lp180
I3702
aI166
aI1
aI0
ag11
aa(lp181
I3716
aI167
aI1
aI0
ag11
aa(lp182
I3735
aI168
aI1
aI0
ag11
aa(lp183
I3742
aI169
aI1
aI0
ag11
aa(lp184
I3748
aI170
aI1
aI0
ag11
aa(lp185
I3760
aI171
aI1
aI0
ag11
aa(lp186
I3774
aI172
aI0
aI0
ag16
aa(lp187
I3781
aI173
aI1
aI0
ag11
aa(lp188
I3795
aI174
aI0
aI0
ag16
aa(lp189
I3810
aI175
aI1
aI0
ag11
aa(lp190
I3815
aI176
aI1
aI0
ag11
aa(lp191
I3845
aI177
aI0
aI0
ag16
aa(lp192
I3862
aI178
aI1
aI0
ag11
aa(lp193
I3870
aI179
aI1
aI0
ag11
aa(lp194
I3878
aI180
aI1
aI0
ag11
aa(lp195
I3885
aI181
aI1
aI0
ag11
aa(lp196
I3897
aI182
aI0
aI0
ag16
aa(lp197
I3923
aI183
aI0
aI0
ag16
aa(lp198
I3943
aI184
aI1
aI0
ag11
aa(lp199
I3949
aI185
aI1
aI0
ag11
aa(lp200
I3957
aI186
aI1
aI0
ag11
aa(lp201
I3971
aI187
aI1
aI0
ag11
aa(lp202
I3987
aI188
aI0
aI0
ag16
aa(lp203
I4018
aI189
aI1
aI0
ag11
aa(lp204
I4030
aI190
aI0
aI0
ag16
aa(lp205
I4044
aI191
aI0
aI0
ag16
aa(lp206
I4063
aI192
aI1
aI0
ag11
aa(lp207
I4096
aI193
aI1
aI0
ag11
aa(lp208
I4115
aI194
aI0
aI0
ag16
aa(lp209
I4129
aI195
aI1
aI0
ag11
aa(lp210
I4150
aI196
aI1
aI0
ag11
aa(lp211
I4166
aI197
aI0
aI0
ag16
aa(lp212
I4186
aI198
aI0
aI0
ag16
aa(lp213
I4198
aI199
aI0
aI0
ag16
aa(lp214
I4206
aI200
aI1
aI0
ag11
aa(lp215
I4211
aI201
aI1
aI0
ag11
aa(lp216
I4237
aI202
aI1
aI0
ag11
aa(lp217
I4251
aI203
aI0
aI0
ag16
aa(lp218
I4273
aI204
aI1
aI0
ag11
aa(lp219
I4290
aI205
aI0
aI0
ag16
aa(lp220
I4306
aI206
aI1
aI0
ag11
aa(lp221
I4326
aI207
aI1
aI0
ag11
aa(lp222
I4360
aI208
aI1
aI0
ag11
aa(lp223
I4373
aI209
aI1
aI0
ag11
aa(lp224
I4390
aI210
aI0
aI0
ag16
aa(lp225
I4399
aI211
aI1
aI0
ag11
aa(lp226
I4414
aI212
aI1
aI0
ag11
aa(lp227
I4536
aI213
aI1
aI0
ag11
aa(lp228
I4565
aI214
aI0
aI0
ag16
aa(lp229
I4585
aI215
aI0
aI0
ag16
aa(lp230
I4596
aI216
aI0
aI0
ag16
aa(lp231
I4608
aI217
aI1
aI0
ag11
aa(lp232
I4626
aI218
aI0
aI0
ag16
aa(lp233
I4639
aI219
aI1
aI0
ag11
aa(lp234
I4663
aI220
aI1
aI0
ag11
aa(lp235
I4674
aI221
aI0
aI0
ag16
aa(lp236
I4705
aI222
aI1
aI0
ag11
aa(lp237
I4712
aI223
aI1
aI0
ag11
aa(lp238
I4894
aI224
aI1
aI0
ag11
aa(lp239
I4912
aI225
aI1
aI0
ag11
aa(lp240
I4919
aI226
aI1
aI0
ag11
aa(lp241
I4950
aI227
aI1
aI0
ag11
aa(lp242
I4968
aI228
aI1
aI0
ag11
aa(lp243
I4980
aI229
aI1
aI0
ag11
aa(lp244
I4997
aI230
aI0
aI0
ag16
aa(lp245
I5028
aI231
aI0
aI0
ag16
aa(lp246
I5041
aI232
aI1
aI0
ag11
aa(lp247
I5071
aI233
aI0
aI0
ag16
aa(lp248
I5078
aI234
aI1
aI0
ag11
aa(lp249
I5097
aI235
aI0
aI0
ag16
aa(lp250
I5142
aI236
aI1
aI0
ag11
aa(lp251
I5152
aI237
aI1
aI0
ag11
aa(lp252
I5163
aI238
aI0
aI0
ag16
aa(lp253
I5184
aI239
aI1
aI0
ag11
aa(lp254
I5202
aI240
aI0
aI0
ag16
aa(lp255
I5221
aI241
aI0
aI0
ag16
aa(lp256
I5235
aI242
aI0
aI0
ag16
aa(lp257
I5251
aI243
aI0
aI0
ag16
aa(lp258
I5258
aI244
aI1
aI0
ag11
aa(lp259
I5275
aI245
aI1
aI0
ag11
aa(lp260
I5286
aI246
aI1
aI0
ag11
aa(lp261
I5324
aI247
aI1
aI0
ag11
aa(lp262
I5339
aI248
aI1
aI0
ag11
aa(lp263
I5346
aI249
aI1
aI0
ag11
aa(lp264
I5362
aI250
aI1
aI0
ag11
aa(lp265
I5378
aI251
aI0
aI0
ag16
aa(lp266
I5398
aI252
aI1
aI0
ag11
aa(lp267
I5410
aI253
aI0
aI0
ag16
aa(lp268
I5449
aI254
aI1
aI0
ag11
aa(lp269
I5455
aI255
aI1
aI0
ag11
aa(lp270
I5484
aI256
aI1
aI0
ag11
aa(lp271
I5509
aI257
aI1
aI0
ag11
aa(lp272
I5527
aI258
aI0
aI0
ag16
aa(lp273
I5543
aI259
aI0
aI0
ag16
aa(lp274
I5556
aI260
aI1
aI0
ag11
aa(lp275
I5569
aI261
aI1
aI0
ag11
aa(lp276
I5617
aI262
aI0
aI0
ag16
aa(lp277
I5626
aI263
aI1
aI0
ag11
aa(lp278
I5632
aI264
aI1
aI0
ag11
aa(lp279
I5657
aI265
aI0
aI0
ag16
aa(lp280
I5675
aI266
aI1
aI0
ag11
aa(lp281
I5686
aI267
aI0
aI0
ag16
aa(lp282
I5703
aI268
aI1
aI0
ag11
aa(lp283
I5722
aI269
aI0
aI0
ag16
aa(lp284
I5728
aI270
aI1
aI0
ag11
aa(lp285
I5755
aI271
aI0
aI0
ag16
aa(lp286
I5777
aI272
aI1
aI0
ag11
aa(lp287
I5784
aI273
aI1
aI0
ag11
aa(lp288
I5797
aI274
aI1
aI0
ag11
aa(lp289
I5803
aI275
aI1
aI0
ag11
aa(lp290
I5818
aI276
aI0
aI0
ag16
aa(lp291
I5838
aI277
aI0
aI0
ag16
aa(lp292
I5847
aI278
aI1
aI0
ag11
aa(lp293
I5856
aI279
aI1
aI0
ag11
aa(lp294
I5867
aI280
aI1
aI0
ag11
aa(lp295
I5891
aI281
aI1
aI0
ag11
aa(lp296
I5898
aI282
aI1
aI0
ag11
aa(lp297
I5905
aI283
aI1
aI0
ag11
aa(lp298
I5918
aI284
aI1
aI0
ag11
aa(lp299
I5937
aI285
aI1
aI0
ag11
aa(lp300
I5951
aI286
aI1
aI0
ag11
aa(lp301
I5957
aI287
aI1
aI0
ag11
aa(lp302
I5974
aI288
aI0
aI0
ag16
aa(lp303
I6003
aI289
aI1
aI0
ag11
aa.