(lp0
(lp1
I200
aI0
aI0
aI0
acnumpy.core.multiarray
scalar
p2
(cnumpy
dtype
p3
(S'b1'
p4
I0
I1
tp5
Rp6
(I3
S'|'
p7
NNNI-1
I-1
I0
tp8
bS'\x00'
p9
tp10
Rp11
aa(lp12
I230
aI1
aI1
aI0
ag11
aa(lp13
I257
aI2
aI1
aI0
ag11
aa(lp14
I342
aI3
aI1
aI0
ag11
aa(lp15
I542
aI4
aI0
aI0
ag11
aa(lp16
I640
aI5
aI0
aI0
ag2
(g6
S'\x01'
p17
tp18
Rp19
aa(lp20
I692
aI6
aI1
aI0
ag11
aa(lp21
I728
aI7
aI1
aI0
ag11
aa(lp22
I777
aI8
aI0
aI0
ag19
aa(lp23
I809
aI9
aI1
aI0
ag11
aa(lp24
I827
aI10
aI0
aI0
ag19
aa(lp25
I909
aI11
aI0
aI0
ag19
aa(lp26
I972
aI12
aI1
aI0
ag11
aa(lp27
I987
aI13
aI1
aI0
ag11
aa(lp28
I1006
aI14
aI1
aI0
ag11
aa(lp29
I1022
aI15
aI1
aI0
ag11
aa(lp30
I1032
aI16
aI1
aI0
ag11
aa(lp31
I1069
aI17
aI1
aI0
ag11
aa(lp32
I1115
aI18
aI1
aI0
ag11
aa(lp33
I1134
aI19
aI1
aI0
ag11
aa(lp34
I1156
aI20
aI1
aI0
ag11
aa(lp35
I1191
aI21
aI0
aI0
ag19
aa(lp36
I1226
aI22
aI0
aI0
ag19
aa(lp37
I1250
aI23
aI1
aI0
ag11
aa(lp38
I1304
aI24
aI1
aI0
ag11
aa(lp39
I1504
aI25
aI0
aI0
ag11
aa(lp40
I1528
aI26
aI1
aI0
ag11
aa(lp41
I1560
aI27
aI1
aI0
ag11
aa(lp42
I1604
aI28
aI0
aI0
ag19
aa(lp43
I1632
aI29
aI1
aI0
ag11
aa(lp44
I1667
aI30
aI0
aI0
ag19
aa(lp45
I1686
aI31
aI1
aI0
ag11
aa(lp46
I1694
aI32
aI1
aI0
ag11
aa(lp47
I1894
aI33
aI0
aI0
ag11
aa(lp48
I1926
aI34
aI1
aI0
ag11
aa(lp49
I1938
aI35
aI1
aI0
ag11
aa(lp50
I1948
aI36
aI1
aI0
ag11
aa(lp51
I1981
aI37
aI0
aI0
ag19
aa(lp52
I2081
aI38
aI1
aI0
ag11
aa(lp53
I2092
aI39
aI1
aI0
ag11
aa(lp54
I2124
aI40
aI1
aI0
ag11
aa(lp55
I2324
aI41
aI0
aI0
ag11
aa(lp56
I2368
aI42
aI1
aI0
ag11
aa(lp57
I2387
aI43
aI1
aI0
ag11
aa(lp58
I2565
aI44
aI1
aI0
ag11
aa(lp59
I2606
aI45
aI1
aI0
ag11
aa(lp60
I2644
aI46
aI1
aI0
ag11
aa(lp61
I2660
aI47
aI1
aI0
ag11
aa(lp62
I2698
aI48
aI1
aI0
ag11
aa(lp63
I2736
aI49
aI1
aI0
ag11
aa(lp64
I2743
aI50
aI1
aI0
ag11
aa(lp65
I2767
aI51
aI1
aI0
ag11
aa(lp66
I2777
aI52
aI1
aI0
ag11
aa(lp67
I2812
aI53
aI1
aI0
ag11
aa(lp68
I2845
aI54
aI1
aI0
ag11
aa(lp69
I2978
aI55
aI1
aI0
ag11
aa(lp70
I3087
aI56
aI1
aI0
ag11
aa(lp71
I3268
aI57
aI0
aI0
ag19
aa(lp72
I3325
aI58
aI1
aI0
ag11
aa(lp73
I3340
aI59
aI0
aI0
ag19
aa(lp74
I3355
aI60
aI1
aI0
ag11
aa(lp75
I3489
aI61
aI1
aI0
ag11
aa(lp76
I3513
aI62
aI1
aI0
ag11
aa(lp77
I3532
aI63
aI0
aI0
ag19
aa(lp78
I3615
aI64
aI1
aI0
ag11
aa(lp79
I3689
aI65
aI1
aI0
ag11
aa(lp80
I3697
aI66
aI1
aI0
ag11
aa(lp81
I3717
aI67
aI1
aI0
ag11
aa(lp82
I3756
aI68
aI0
aI0
ag19
aa(lp83
I3811
aI69
aI1
aI0
ag11
aa(lp84
I3920
aI70
aI1
aI0
ag11
aa(lp85
I3985
aI71
aI1
aI0
ag11
aa(lp86
I4003
aI72
aI1
aI0
ag11
aa(lp87
I4013
aI73
aI1
aI0
ag11
aa(lp88
I4072
aI74
aI1
aI0
ag11
aa(lp89
I4096
aI75
aI1
aI0
ag11
aa(lp90
I4117
aI76
aI1
aI0
ag11
aa(lp91
I4159
aI77
aI0
aI0
ag19
aa(lp92
I4198
aI78
aI1
aI0
ag11
aa(lp93
I4202
aI79
aI1
aI0
ag11
aa(lp94
I4243
aI80
aI1
aI0
ag11
aa(lp95
I4250
aI81
aI1
aI0
ag11
aa(lp96
I4266
aI82
aI1
aI0
ag11
aa(lp97
I4466
aI83
aI0
aI0
ag11
aa(lp98
I4477
aI84
aI1
aI0
ag11
aa(lp99
I4536
aI85
aI1
aI0
ag11
aa(lp100
I4592
aI86
aI1
aI0
ag11
aa(lp101
I4629
aI87
aI1
aI0
ag11
aa(lp102
I4656
aI88
aI1
aI0
ag11
aa(lp103
I4706
aI89
aI1
aI0
ag11
aa(lp104
I4716
aI90
aI1
aI0
ag11
aa(lp105
I4818
aI91
aI1
aI0
ag11
aa(lp106
I4903
aI92
aI1
aI0
ag11
aa(lp107
I5103
aI93
aI0
aI0
ag11
aa(lp108
I5126
aI94
aI1
aI0
ag11
aa(lp109
I5136
aI95
aI0
aI0
ag19
aa(lp110
I5142
aI96
aI1
aI0
ag11
aa(lp111
I5342
aI97
aI0
aI0
ag11
aa(lp112
I5348
aI98
aI1
aI0
ag11
aa(lp113
I5401
aI99
aI0
aI0
ag19
aa(lp114
I5481
aI100
aI1
aI0
ag11
aa(lp115
I5504
aI101
aI1
aI0
ag11
aa(lp116
I5514
aI102
aI1
aI0
ag11
aa(lp117
I5522
aI103
aI1
aI0
ag11
aa(lp118
I5645
aI104
aI1
aI0
ag11
aa(lp119
I5723
aI105
aI1
aI0
ag11
aa(lp120
I5727
aI106
aI1
aI0
ag11
aa(lp121
I5752
aI107
aI1
aI0
ag11
aa(lp122
I5764
aI108
aI1
aI0
ag11
aa(lp123
I5776
aI109
aI1
aI0
ag11
aa(lp124
I5797
aI110
aI0
aI0
ag19
aa(lp125
I5823
aI111
aI1
aI0
ag11
aa(lp126
I5897
aI112
aI1
aI0
ag11
aa(lp127
I5917
aI113
aI1
aI0
ag11
aa(lp128
I5978
aI114
aI1
aI0
ag11
aa(lp129
I6178
aI115
aI0
aI0
ag11
aa.