(lp0
(lp1
I83
aI0
aI1
aI0
acnumpy.core.multiarray
scalar
p2
(cnumpy
dtype
p3
(S'b1'
p4
I0
I1
tp5
Rp6
(I3
S'|'
p7
NNNI-1
I-1
I0
tp8
bS'\x00'
p9
tp10
Rp11
aa(lp12
I283
aI1
aI0
aI0
ag11
aa(lp13
I483
aI2
aI0
aI0
ag11
aa(lp14
I683
aI3
aI0
aI0
ag11
aa(lp15
I883
aI4
aI0
aI0
ag11
aa(lp16
I1054
aI5
aI1
aI0
ag11
aa(lp17
I1254
aI6
aI0
aI0
ag11
aa(lp18
I1454
aI7
aI0
aI0
ag11
aa(lp19
I1654
aI8
aI0
aI0
ag11
aa(lp20
I1854
aI9
aI0
aI0
ag11
aa(lp21
I2029
aI10
aI1
aI0
ag11
aa(lp22
I2229
aI11
aI0
aI0
ag11
aa(lp23
I2429
aI12
aI0
aI0
ag11
aa(lp24
I2629
aI13
aI0
aI0
ag11
aa(lp25
I2829
aI14
aI0
aI0
ag11
aa(lp26
I2952
aI15
aI0
aI0
ag2
(g6
S'\x01'
p27
tp28
Rp29
aa(lp30
I3152
aI16
aI1
aI0
ag11
aa(lp31
I3352
aI17
aI0
aI0
ag11
aa(lp32
I3552
aI18
aI0
aI0
ag11
aa(lp33
I3635
aI19
aI0
aI0
ag29
aa(lp34
I3835
aI20
aI0
aI0
ag11
aa(lp35
I4035
aI21
aI0
aI0
ag11
aa(lp36
I4235
aI22
aI0
aI0
ag11
aa(lp37
I4435
aI23
aI0
aI0
ag11
aa(lp38
I4635
aI24
aI0
aI0
ag11
aa(lp39
I4835
aI25
aI0
aI0
ag11
aa(lp40
I5035
aI26
aI0
aI0
ag11
aa(lp41
I5235
aI27
aI0
aI0
ag11
aa(lp42
I5260
aI28
aI0
aI0
ag29
aa(lp43
I5460
aI29
aI0
aI0
ag11
aa(lp44
I5660
aI30
aI0
aI0
ag11
aa(lp45
I5729
aI31
aI0
aI0
ag29
aa(lp46
I5929
aI32
aI0
aI0
ag11
aa(lp47
I6129
aI33
aI0
aI0
ag11
aa.