(lp0
(lp1
I148
aI0
aI1
aI0
acnumpy.core.multiarray
scalar
p2
(cnumpy
dtype
p3
(S'b1'
p4
I0
I1
tp5
Rp6
(I3
S'|'
p7
NNNI-1
I-1
I0
tp8
bS'\x00'
p9
tp10
Rp11
aa(lp12
I164
aI1
aI1
aI0
ag11
aa(lp13
I181
aI2
aI0
aI0
ag2
(g6
S'\x01'
p14
tp15
Rp16
aa(lp17
I190
aI3
aI1
aI0
ag11
aa(lp18
I199
aI4
aI1
aI0
ag11
aa(lp19
I214
aI5
aI1
aI0
ag11
aa(lp20
I267
aI6
aI0
aI0
ag16
aa(lp21
I293
aI7
aI1
aI0
ag11
aa(lp22
I314
aI8
aI1
aI0
ag11
aa(lp23
I331
aI9
aI1
aI0
ag11
aa(lp24
I337
aI10
aI1
aI0
ag11
aa(lp25
I360
aI11
aI1
aI0
ag11
aa(lp26
I386
aI12
aI0
aI0
ag16
aa(lp27
I405
aI13
aI1
aI0
ag11
aa(lp28
I449
aI14
aI1
aI0
ag11
aa(lp29
I470
aI15
aI1
aI0
ag11
aa(lp30
I535
aI16
aI1
aI0
ag11
aa(lp31
I545
aI17
aI1
aI0
ag11
aa(lp32
I590
aI18
aI0
aI0
ag16
aa(lp33
I608
aI19
aI1
aI0
ag11
aa(lp34
I619
aI20
aI1
aI0
ag11
aa(lp35
I638
aI21
aI1
aI0
ag11
aa(lp36
I838
aI22
aI0
aI0
ag11
aa(lp37
I861
aI23
aI0
aI0
ag16
aa(lp38
I921
aI24
aI0
aI0
ag16
aa(lp39
I968
aI25
aI0
aI0
ag16
aa(lp40
I1045
aI26
aI0
aI0
ag16
aa(lp41
I1051
aI27
aI1
aI0
ag11
aa(lp42
I1126
aI28
aI1
aI0
ag11
aa(lp43
I1170
aI29
aI1
aI0
ag11
aa(lp44
I1266
aI30
aI1
aI0
ag11
aa(lp45
I1281
aI31
aI1
aI0
ag11
aa(lp46
I1306
aI32
aI1
aI0
ag11
aa(lp47
I1452
aI33
aI0
aI0
ag16
aa(lp48
I1621
aI34
aI0
aI0
ag16
aa(lp49
I1715
aI35
aI0
aI0
ag16
aa(lp50
I1743
aI36
aI1
aI0
ag11
aa(lp51
I1775
aI37
aI1
aI0
ag11
aa(lp52
I1814
aI38
aI1
aI0
ag11
aa(lp53
I1864
aI39
aI1
aI0
ag11
aa(lp54
I1955
aI40
aI1
aI0
ag11
aa(lp55
I1965
aI41
aI1
aI0
ag11
aa(lp56
I1987
aI42
aI0
aI0
ag16
aa(lp57
I2036
aI43
aI1
aI0
ag11
aa(lp58
I2116
aI44
aI0
aI0
ag16
aa(lp59
I2149
aI45
aI1
aI0
ag11
aa(lp60
I2164
aI46
aI1
aI0
ag11
aa(lp61
I2191
aI47
aI1
aI0
ag11
aa(lp62
I2207
aI48
aI1
aI0
ag11
aa(lp63
I2217
aI49
aI1
aI0
ag11
aa(lp64
I2266
aI50
aI1
aI0
ag11
aa(lp65
I2341
aI51
aI1
aI0
ag11
aa(lp66
I2372
aI52
aI1
aI0
ag11
aa(lp67
I2466
aI53
aI1
aI0
ag11
aa(lp68
I2515
aI54
aI1
aI0
ag11
aa(lp69
I2704
aI55
aI1
aI0
ag11
aa(lp70
I2728
aI56
aI1
aI0
ag11
aa(lp71
I2736
aI57
aI1
aI0
ag11
aa(lp72
I2793
aI58
aI0
aI0
ag16
aa(lp73
I2819
aI59
aI1
aI0
ag11
aa(lp74
I2879
aI60
aI1
aI0
ag11
aa(lp75
I2894
aI61
aI1
aI0
ag11
aa(lp76
I2910
aI62
aI1
aI0
ag11
aa(lp77
I2940
aI63
aI1
aI0
ag11
aa(lp78
I3010
aI64
aI0
aI0
ag16
aa(lp79
I3034
aI65
aI1
aI0
ag11
aa(lp80
I3040
aI66
aI1
aI0
ag11
aa(lp81
I3061
aI67
aI1
aI0
ag11
aa(lp82
I3083
aI68
aI1
aI0
ag11
aa(lp83
I3099
aI69
aI0
aI0
ag16
aa(lp84
I3160
aI70
aI1
aI0
ag11
aa(lp85
I3169
aI71
aI1
aI0
ag11
aa(lp86
I3218
aI72
aI1
aI0
ag11
aa(lp87
I3279
aI73
aI1
aI0
ag11
aa(lp88
I3370
aI74
aI1
aI0
ag11
aa(lp89
I3380
aI75
aI1
aI0
ag11
aa(lp90
I3497
aI76
aI1
aI0
ag11
aa(lp91
I3505
aI77
aI1
aI0
ag11
aa(lp92
I3538
aI78
aI1
aI0
ag11
aa(lp93
I3560
aI79
aI1
aI0
ag11
aa(lp94
I3624
aI80
aI0
aI0
ag16
aa(lp95
I3702
aI81
aI0
aI0
ag16
aa(lp96
I3752
aI82
aI0
aI0
ag16
aa(lp97
I3934
aI83
aI0
aI0
ag16
aa(lp98
I4016
aI84
aI0
aI0
ag16
aa(lp99
I4055
aI85
aI0
aI0
ag16
aa(lp100
I4076
aI86
aI1
aI0
ag11
aa(lp101
I4101
aI87
aI1
aI0
ag11
aa(lp102
I4143
aI88
aI1
aI0
ag11
aa(lp103
I4303
aI89
aI0
aI0
ag16
aa(lp104
I4329
aI90
aI1
aI0
ag11
aa(lp105
I4338
aI91
aI1
aI0
ag11
aa(lp106
I4399
aI92
aI1
aI0
ag11
aa(lp107
I4439
aI93
aI1
aI0
ag11
aa(lp108
I4455
aI94
aI1
aI0
ag11
aa(lp109
I4483
aI95
aI1
aI0
ag11
aa(lp110
I4527
aI96
aI1
aI0
ag11
aa(lp111
I4536
aI97
aI1
aI0
ag11
aa(lp112
I4561
aI98
aI1
aI0
ag11
aa(lp113
I4566
aI99
aI1
aI0
ag11
aa(lp114
I4580
aI100
aI1
aI0
ag11
aa(lp115
I4596
aI101
aI1
aI0
ag11
aa(lp116
I4635
aI102
aI1
aI0
ag11
aa(lp117
I4835
aI103
aI0
aI0
ag11
aa(lp118
I4846
aI104
aI1
aI0
ag11
aa(lp119
I4884
aI105
aI1
aI0
ag11
aa(lp120
I4963
aI106
aI1
aI0
ag11
aa(lp121
I5021
aI107
aI0
aI0
ag16
aa(lp122
I5030
aI108
aI1
aI0
ag11
aa(lp123
I5042
aI109
aI1
aI0
ag11
aa(lp124
I5052
aI110
aI1
aI0
ag11
aa(lp125
I5117
aI111
aI1
aI0
ag11
aa(lp126
I5130
aI112
aI1
aI0
ag11
aa(lp127
I5162
aI113
aI1
aI0
ag11
aa(lp128
I5191
aI114
aI1
aI0
ag11
aa(lp129
I5246
aI115
aI1
aI0
ag11
aa(lp130
I5359
aI116
aI1
aI0
ag11
aa(lp131
I5363
aI117
aI1
aI0
ag11
aa(lp132
I5380
aI118
aI1
aI0
ag11
aa(lp133
I5393
aI119
aI1
aI0
ag11
aa(lp134
I5418
aI120
aI1
aI0
ag11
aa(lp135
I5436
aI121
aI1
aI0
ag11
aa(lp136
I5494
aI122
aI0
aI0
ag16
aa(lp137
I5523
aI123
aI0
aI0
ag16
aa(lp138
I5643
aI124
aI1
aI0
ag11
aa(lp139
I5662
aI125
aI1
aI0
ag11
aa(lp140
I5696
aI126
aI0
aI0
ag16
aa(lp141
I5716
aI127
aI1
aI0
ag11
aa(lp142
I5728
aI128
aI1
aI0
ag11
aa(lp143
I5757
aI129
aI1
aI0
ag11
aa(lp144
I5801
aI130
aI1
aI0
ag11
aa(lp145
I5839
aI131
aI1
aI0
ag11
aa(lp146
I5883
aI132
aI1
aI0
ag11
aa(lp147
I5921
aI133
aI1
aI0
ag11
aa(lp148
I6019
aI134
aI1
aI0
ag11
aa.