(lp0
(lp1
I167
aI0
aI1
aI0
acnumpy.core.multiarray
scalar
p2
(cnumpy
dtype
p3
(S'b1'
p4
I0
I1
tp5
Rp6
(I3
S'|'
p7
NNNI-1
I-1
I0
tp8
bS'\x00'
p9
tp10
Rp11
aa(lp12
I209
aI1
aI1
aI0
ag11
aa(lp13
I409
aI2
aI0
aI0
ag11
aa(lp14
I609
aI3
aI0
aI0
ag11
aa(lp15
I776
aI4
aI1
aI0
ag11
aa(lp16
I783
aI5
aI1
aI0
ag11
aa(lp17
I832
aI6
aI1
aI0
ag11
aa(lp18
I868
aI7
aI1
aI0
ag11
aa(lp19
I930
aI8
aI1
aI0
ag11
aa(lp20
I989
aI9
aI1
aI0
ag11
aa(lp21
I1092
aI10
aI1
aI0
ag11
aa(lp22
I1109
aI11
aI1
aI0
ag11
aa(lp23
I1115
aI12
aI1
aI0
ag11
aa(lp24
I1151
aI13
aI1
aI0
ag11
aa(lp25
I1266
aI14
aI0
aI0
ag2
(g6
S'\x01'
p26
tp27
Rp28
aa(lp29
I1274
aI15
aI1
aI0
ag11
aa(lp30
I1328
aI16
aI1
aI0
ag11
aa(lp31
I1372
aI17
aI1
aI0
ag11
aa(lp32
I1393
aI18
aI1
aI0
ag11
aa(lp33
I1441
aI19
aI1
aI0
ag11
aa(lp34
I1452
aI20
aI1
aI0
ag11
aa(lp35
I1514
aI21
aI0
aI0
ag28
aa(lp36
I1527
aI22
aI1
aI0
ag11
aa(lp37
I1535
aI23
aI1
aI0
ag11
aa(lp38
I1594
aI24
aI1
aI0
ag11
aa(lp39
I1665
aI25
aI1
aI0
ag11
aa(lp40
I1675
aI26
aI1
aI0
ag11
aa(lp41
I1690
aI27
aI1
aI0
ag11
aa(lp42
I1707
aI28
aI1
aI0
ag11
aa(lp43
I1817
aI29
aI0
aI0
ag28
aa(lp44
I1823
aI30
aI1
aI0
ag11
aa(lp45
I1850
aI31
aI1
aI0
ag11
aa(lp46
I1856
aI32
aI1
aI0
ag11
aa(lp47
I1864
aI33
aI1
aI0
ag11
aa(lp48
I1893
aI34
aI0
aI0
ag28
aa(lp49
I1912
aI35
aI1
aI0
ag11
aa(lp50
I1927
aI36
aI1
aI0
ag11
aa(lp51
I1942
aI37
aI1
aI0
ag11
aa(lp52
I1979
aI38
aI0
aI0
ag28
aa(lp53
I1985
aI39
aI1
aI0
ag11
aa(lp54
I2014
aI40
aI0
aI0
ag28
aa(lp55
I2065
aI41
aI1
aI0
ag11
aa(lp56
I2088
aI42
aI0
aI0
ag28
aa(lp57
I2203
aI43
aI1
aI0
ag11
aa(lp58
I2211
aI44
aI1
aI0
ag11
aa(lp59
I2260
aI45
aI1
aI0
ag11
aa(lp60
I2278
aI46
aI0
aI0
ag28
aa(lp61
I2289
aI47
aI1
aI0
ag11
aa(lp62
I2312
aI48
aI0
aI0
ag28
aa(lp63
I2512
aI49
aI0
aI0
ag11
aa(lp64
I2535
aI50
aI1
aI0
ag11
aa(lp65
I2552
aI51
aI1
aI0
ag11
aa(lp66
I2590
aI52
aI1
aI0
ag11
aa(lp67
I2599
aI53
aI1
aI0
ag11
aa(lp68
I2678
aI54
aI0
aI0
ag28
aa(lp69
I2760
aI55
aI1
aI0
ag11
aa(lp70
I2766
aI56
aI1
aI0
ag11
aa(lp71
I2780
aI57
aI1
aI0
ag11
aa(lp72
I2791
aI58
aI1
aI0
ag11
aa(lp73
I2823
aI59
aI0
aI0
ag28
aa(lp74
I2874
aI60
aI1
aI0
ag11
aa(lp75
I3074
aI61
aI0
aI0
ag11
aa(lp76
I3084
aI62
aI1
aI0
ag11
aa(lp77
I3098
aI63
aI0
aI0
ag28
aa(lp78
I3137
aI64
aI0
aI0
ag28
aa(lp79
I3161
aI65
aI1
aI0
ag11
aa(lp80
I3184
aI66
aI0
aI0
ag28
aa(lp81
I3195
aI67
aI1
aI0
ag11
aa(lp82
I3225
aI68
aI1
aI0
ag11
aa(lp83
I3238
aI69
aI1
aI0
ag11
aa(lp84
I3254
aI70
aI1
aI0
ag11
aa(lp85
I3275
aI71
aI1
aI0
ag11
aa(lp86
I3305
aI72
aI1
aI0
ag11
aa(lp87
I3329
aI73
aI1
aI0
ag11
aa(lp88
I3334
aI74
aI1
aI0
ag11
aa(lp89
I3353
aI75
aI1
aI0
ag11
aa(lp90
I3368
aI76
aI1
aI0
ag11
aa(lp91
I3398
aI77
aI1
aI0
ag11
aa(lp92
I3414
aI78
aI1
aI0
ag11
aa(lp93
I3614
aI79
aI0
aI0
ag11
aa(lp94
I3670
aI80
aI1
aI0
ag11
aa(lp95
I3680
aI81
aI1
aI0
ag11
aa(lp96
I3685
aI82
aI1
aI0
ag11
aa(lp97
I3749
aI83
aI1
aI0
ag11
aa(lp98
I3759
aI84
aI1
aI0
ag11
aa(lp99
I3772
aI85
aI1
aI0
ag11
aa(lp100
I3786
aI86
aI1
aI0
ag11
aa(lp101
I3803
aI87
aI1
aI0
ag11
aa(lp102
I3816
aI88
aI0
aI0
ag28
aa(lp103
I4016
aI89
aI0
aI0
ag11
aa(lp104
I4076
aI90
aI0
aI0
ag28
aa(lp105
I4096
aI91
aI1
aI0
ag11
aa(lp106
I4104
aI92
aI1
aI0
ag11
aa(lp107
I4137
aI93
aI1
aI0
ag11
aa(lp108
I4153
aI94
aI1
aI0
ag11
aa(lp109
I4332
aI95
aI0
aI0
ag28
aa(lp110
I4342
aI96
aI1
aI0
ag11
aa(lp111
I4542
aI97
aI0
aI0
ag11
aa(lp112
I4555
aI98
aI1
aI0
ag11
aa(lp113
I4586
aI99
aI0
aI0
ag28
aa(lp114
I4590
aI100
aI1
aI0
ag11
aa(lp115
I4638
aI101
aI0
aI0
ag28
aa(lp116
I4666
aI102
aI1
aI0
ag11
aa(lp117
I4710
aI103
aI1
aI0
ag11
aa(lp118
I4718
aI104
aI1
aI0
ag11
aa(lp119
I4807
aI105
aI1
aI0
ag11
aa(lp120
I4907
aI106
aI1
aI0
ag11
aa(lp121
I4924
aI107
aI1
aI0
ag11
aa(lp122
I4953
aI108
aI0
aI0
ag28
aa(lp123
I4972
aI109
aI1
aI0
ag11
aa(lp124
I4982
aI110
aI1
aI0
ag11
aa(lp125
I5007
aI111
aI1
aI0
ag11
aa(lp126
I5017
aI112
aI1
aI0
ag11
aa(lp127
I5040
aI113
aI0
aI0
ag28
aa(lp128
I5077
aI114
aI0
aI0
ag28
aa(lp129
I5104
aI115
aI0
aI0
ag28
aa(lp130
I5174
aI116
aI1
aI0
ag11
aa(lp131
I5193
aI117
aI1
aI0
ag11
aa(lp132
I5204
aI118
aI1
aI0
ag11
aa(lp133
I5227
aI119
aI1
aI0
ag11
aa(lp134
I5234
aI120
aI1
aI0
ag11
aa(lp135
I5266
aI121
aI0
aI0
ag28
aa(lp136
I5448
aI122
aI1
aI0
ag11
aa(lp137
I5477
aI123
aI1
aI0
ag11
aa(lp138
I5490
aI124
aI1
aI0
ag11
aa(lp139
I5509
aI125
aI1
aI0
ag11
aa(lp140
I5519
aI126
aI1
aI0
ag11
aa(lp141
I5540
aI127
aI1
aI0
ag11
aa(lp142
I5560
aI128
aI1
aI0
ag11
aa(lp143
I5600
aI129
aI0
aI0
ag28
aa(lp144
I5608
aI130
aI1
aI0
ag11
aa(lp145
I5635
aI131
aI1
aI0
ag11
aa(lp146
I5658
aI132
aI0
aI0
ag28
aa(lp147
I5671
aI133
aI1
aI0
ag11
aa(lp148
I5707
aI134
aI0
aI0
ag28
aa(lp149
I5722
aI135
aI1
aI0
ag11
aa(lp150
I5737
aI136
aI0
aI0
ag28
aa(lp151
I5765
aI137
aI1
aI0
ag11
aa(lp152
I5771
aI138
aI1
aI0
ag11
aa(lp153
I5802
aI139
aI1
aI0
ag11
aa(lp154
I5818
aI140
aI0
aI0
ag28
aa(lp155
I5831
aI141
aI0
aI0
ag28
aa(lp156
I5852
aI142
aI1
aI0
ag11
aa(lp157
I5909
aI143
aI0
aI0
ag28
aa(lp158
I5926
aI144
aI1
aI0
ag11
aa(lp159
I5955
aI145
aI1
aI0
ag11
aa(lp160
I5980
aI146
aI0
aI0
ag28
aa(lp161
I5993
aI147
aI0
aI0
ag28
aa(lp162
I6010
aI148
aI0
aI0
ag28
aa.